
cobj.out:     file format elf32-i386


Disassembly of section .text:

00280000 <bootmain>:

//extern struct KEYBUF keybuf;
extern struct FIFO8 keyfifo;
extern struct FIFO8 mousefifo;

void bootmain(void){
  280000:	55                   	push   %ebp
  280001:	89 e5                	mov    %esp,%ebp
  280003:	57                   	push   %edi
  280004:	56                   	push   %esi
  280005:	53                   	push   %ebx
  280006:	e8 5a 11 00 00       	call   281165 <__x86.get_pc_thunk.bx>
  28000b:	81 c3 c5 32 00 00    	add    $0x32c5,%ebx
  280011:	81 ec 0c 02 00 00    	sub    $0x20c,%esp
	int mx, my, i;
	unsigned int memtotal;
	struct MOUSE_DEC mdec;
	struct MEMMAN *memman = (struct MEMMAN*)MEMMAN_ADDR;

	init_gdtidt();
  280017:	e8 35 0b 00 00       	call   280b51 <init_gdtidt>
	init_pic();
  28001c:	e8 55 0c 00 00       	call   280c76 <init_pic>
	io_sti();
  280021:	fb                   	sti    

	fifo8_init(&keyfifo, 32, keybuf);
  280022:	50                   	push   %eax
  280023:	8d 85 20 fe ff ff    	lea    -0x1e0(%ebp),%eax
  280029:	50                   	push   %eax
  28002a:	c7 c0 f8 32 28 00    	mov    $0x2832f8,%eax
  280030:	6a 20                	push   $0x20
  280032:	50                   	push   %eax
  280033:	89 85 00 fe ff ff    	mov    %eax,-0x200(%ebp)
  280039:	e8 5d 0d 00 00       	call   280d9b <fifo8_init>
	fifo8_init(&mousefifo, 128, mousebuf);
  28003e:	83 c4 0c             	add    $0xc,%esp
  280041:	8d 85 68 fe ff ff    	lea    -0x198(%ebp),%eax
  280047:	50                   	push   %eax
  280048:	c7 c0 e0 32 28 00    	mov    $0x2832e0,%eax
  28004e:	68 80 00 00 00       	push   $0x80
  280053:	50                   	push   %eax
  280054:	89 85 f8 fd ff ff    	mov    %eax,-0x208(%ebp)
  28005a:	e8 3c 0d 00 00       	call   280d9b <fifo8_init>

// out:write a data to a port
static __inline void
outb(int port, uint8_t data)
{
	__asm __volatile("outb %0,%w1" : : "a" (data), "d" (port));
  28005f:	b0 f9                	mov    $0xf9,%al
  280061:	ba 21 00 00 00       	mov    $0x21,%edx
  280066:	ee                   	out    %al,(%dx)
  280067:	b0 ef                	mov    $0xef,%al
  280069:	ba a1 00 00 00       	mov    $0xa1,%edx
  28006e:	ee                   	out    %al,(%dx)
	outb(PIC0_IMR, 0xf9);
	outb(PIC1_IMR, 0xef);

	init_keyboard();
  28006f:	e8 df 0d 00 00       	call   280e53 <init_keyboard>
	enable_mouse(&mdec);
  280074:	8d 85 10 fe ff ff    	lea    -0x1f0(%ebp),%eax
  28007a:	89 04 24             	mov    %eax,(%esp)
  28007d:	e8 f3 0d 00 00       	call   280e75 <enable_mouse>
	memtotal = memtest(0x00400000, 0xbfffffff);
  280082:	58                   	pop    %eax
  280083:	5a                   	pop    %edx
  280084:	68 ff ff ff bf       	push   $0xbfffffff
  280089:	68 00 00 40 00       	push   $0x400000
  28008e:	e8 0b 0f 00 00       	call   280f9e <memtest>
	memman_init(memman);
  280093:	c7 04 24 00 00 3c 00 	movl   $0x3c0000,(%esp)
	memtotal = memtest(0x00400000, 0xbfffffff);
  28009a:	89 c6                	mov    %eax,%esi
	memman_init(memman);
  28009c:	e8 50 0f 00 00       	call   280ff1 <memman_init>
	memman_free(memman, 0x00001000, 0x0009e000);
  2800a1:	83 c4 0c             	add    $0xc,%esp
  2800a4:	68 00 e0 09 00       	push   $0x9e000
  2800a9:	68 00 10 00 00       	push   $0x1000
  2800ae:	68 00 00 3c 00       	push   $0x3c0000
  2800b3:	e8 d8 0f 00 00       	call   281090 <memman_free>
	memman_free(memman, 0x00400000, memtotal - 0x00400000);
  2800b8:	83 c4 0c             	add    $0xc,%esp
  2800bb:	8d 86 00 00 c0 ff    	lea    -0x400000(%esi),%eax
	putblock8_8(binfo->vram, binfo->scrnx, 16, 16, mx, my, mcursor, 16);
//	sprintf(s, "(%d, %d)", mx, my);
	sprintf(s, "(%d,%d)", mx, my);
	putfonts8_asc(binfo->vram, binfo->scrnx, 0, 0, COL8_FFFFFF, s);

	sprintf(s, "memory %dMB free: %dKB", memtotal/(1024*1024), memman_total(memman)/1024);
  2800c1:	c1 ee 14             	shr    $0x14,%esi
	memman_free(memman, 0x00400000, memtotal - 0x00400000);
  2800c4:	50                   	push   %eax
  2800c5:	68 00 00 40 00       	push   $0x400000
  2800ca:	68 00 00 3c 00       	push   $0x3c0000
  2800cf:	e8 bc 0f 00 00       	call   281090 <memman_free>
	init_palette();
  2800d4:	e8 51 04 00 00       	call   28052a <init_palette>
	init_screen8(binfo->vram, binfo->scrnx, binfo->scrny);
  2800d9:	0f bf 05 f6 0f 00 00 	movswl 0xff6,%eax
  2800e0:	83 c4 0c             	add    $0xc,%esp
  2800e3:	50                   	push   %eax
  2800e4:	0f bf 05 f4 0f 00 00 	movswl 0xff4,%eax
  2800eb:	50                   	push   %eax
  2800ec:	ff 35 f8 0f 00 00    	push   0xff8
  2800f2:	e8 8e 04 00 00       	call   280585 <init_screen8>
	mx=(binfo->scrnx - 16) / 2;
  2800f7:	0f bf 05 f4 0f 00 00 	movswl 0xff4,%eax
  2800fe:	b9 02 00 00 00       	mov    $0x2,%ecx
  280103:	83 e8 10             	sub    $0x10,%eax
  280106:	99                   	cltd   
  280107:	f7 f9                	idiv   %ecx
  280109:	89 c7                	mov    %eax,%edi
	my = (binfo->scrny - 28 - 16) / 2;
  28010b:	0f bf 05 f6 0f 00 00 	movswl 0xff6,%eax
  280112:	83 e8 2c             	sub    $0x2c,%eax
  280115:	99                   	cltd   
  280116:	f7 f9                	idiv   %ecx
	init_mouse_cursor8(mcursor, COL8_008484);
  280118:	59                   	pop    %ecx
	my = (binfo->scrny - 28 - 16) / 2;
  280119:	89 85 04 fe ff ff    	mov    %eax,-0x1fc(%ebp)
	init_mouse_cursor8(mcursor, COL8_008484);
  28011f:	58                   	pop    %eax
  280120:	8d 85 e8 fe ff ff    	lea    -0x118(%ebp),%eax
  280126:	6a 0e                	push   $0xe
  280128:	50                   	push   %eax
  280129:	89 85 fc fd ff ff    	mov    %eax,-0x204(%ebp)
  28012f:	e8 82 06 00 00       	call   2807b6 <init_mouse_cursor8>
	putblock8_8(binfo->vram, binfo->scrnx, 16, 16, mx, my, mcursor, 16);
  280134:	8b 85 fc fd ff ff    	mov    -0x204(%ebp),%eax
  28013a:	6a 10                	push   $0x10
  28013c:	50                   	push   %eax
  28013d:	0f bf 05 f4 0f 00 00 	movswl 0xff4,%eax
  280144:	ff b5 04 fe ff ff    	push   -0x1fc(%ebp)
  28014a:	57                   	push   %edi
  28014b:	6a 10                	push   $0x10
  28014d:	6a 10                	push   $0x10
  28014f:	50                   	push   %eax
  280150:	ff 35 f8 0f 00 00    	push   0xff8
  280156:	e8 bd 06 00 00       	call   280818 <putblock8_8>
	sprintf(s, "(%d,%d)", mx, my);
  28015b:	83 c4 30             	add    $0x30,%esp
  28015e:	8d 83 b0 df ff ff    	lea    -0x2050(%ebx),%eax
  280164:	ff b5 04 fe ff ff    	push   -0x1fc(%ebp)
  28016a:	89 85 f4 fd ff ff    	mov    %eax,-0x20c(%ebp)
  280170:	57                   	push   %edi
  280171:	50                   	push   %eax
  280172:	8d 85 40 fe ff ff    	lea    -0x1c0(%ebp),%eax
  280178:	50                   	push   %eax
  280179:	89 85 fc fd ff ff    	mov    %eax,-0x204(%ebp)
  28017f:	e8 6b 08 00 00       	call   2809ef <sprintf>
	putfonts8_asc(binfo->vram, binfo->scrnx, 0, 0, COL8_FFFFFF, s);
  280184:	58                   	pop    %eax
  280185:	0f bf 05 f4 0f 00 00 	movswl 0xff4,%eax
  28018c:	5a                   	pop    %edx
  28018d:	ff b5 fc fd ff ff    	push   -0x204(%ebp)
  280193:	6a 07                	push   $0x7
  280195:	6a 00                	push   $0x0
  280197:	6a 00                	push   $0x0
  280199:	50                   	push   %eax
  28019a:	ff 35 f8 0f 00 00    	push   0xff8
  2801a0:	e8 bc 05 00 00       	call   280761 <putfonts8_asc>
	sprintf(s, "memory %dMB free: %dKB", memtotal/(1024*1024), memman_total(memman)/1024);
  2801a5:	83 c4 14             	add    $0x14,%esp
  2801a8:	68 00 00 3c 00       	push   $0x3c0000
  2801ad:	e8 62 0e 00 00       	call   281014 <memman_total>
  2801b2:	c1 e8 0a             	shr    $0xa,%eax
  2801b5:	50                   	push   %eax
  2801b6:	8d 83 b8 df ff ff    	lea    -0x2048(%ebx),%eax
  2801bc:	56                   	push   %esi
  2801bd:	50                   	push   %eax
  2801be:	ff b5 fc fd ff ff    	push   -0x204(%ebp)
  2801c4:	e8 26 08 00 00       	call   2809ef <sprintf>
	putfonts8_asc(binfo->vram, binfo->scrnx, 0, 32, COL8_FFFFFF, s);
  2801c9:	83 c4 18             	add    $0x18,%esp
  2801cc:	ff b5 fc fd ff ff    	push   -0x204(%ebp)
  2801d2:	0f bf 05 f4 0f 00 00 	movswl 0xff4,%eax
  2801d9:	6a 07                	push   $0x7
  2801db:	6a 20                	push   $0x20
  2801dd:	6a 00                	push   $0x0
  2801df:	50                   	push   %eax
  2801e0:	ff 35 f8 0f 00 00    	push   0xff8
  2801e6:	e8 76 05 00 00       	call   280761 <putfonts8_asc>
  2801eb:	83 c4 20             	add    $0x20,%esp

//	unsigned char mouse_dbuf[3], mouse_phase;
//	mouse_phase=0;

	for(;;){
		io_cli();
  2801ee:	fa                   	cli    
		if(fifo8_status(&keyfifo)+fifo8_status(&mousefifo)==0){
  2801ef:	83 ec 0c             	sub    $0xc,%esp
  2801f2:	ff b5 00 fe ff ff    	push   -0x200(%ebp)
  2801f8:	e8 3d 0c 00 00       	call   280e3a <fifo8_status>
  2801fd:	89 c6                	mov    %eax,%esi
  2801ff:	58                   	pop    %eax
  280200:	ff b5 f8 fd ff ff    	push   -0x208(%ebp)
  280206:	e8 2f 0c 00 00       	call   280e3a <fifo8_status>
  28020b:	83 c4 10             	add    $0x10,%esp
  28020e:	01 c6                	add    %eax,%esi
  280210:	75 07                	jne    280219 <bootmain+0x219>
			io_sti();
  280212:	fb                   	sti    
	__asm __volatile("hlt");
  280213:	f4                   	hlt    
}
  280214:	e9 71 02 00 00       	jmp    28048a <bootmain+0x48a>
			io_hlt();
		}else{
			if(fifo8_status(&keyfifo)!=0){
  280219:	83 ec 0c             	sub    $0xc,%esp
  28021c:	ff b5 00 fe ff ff    	push   -0x200(%ebp)
  280222:	e8 13 0c 00 00       	call   280e3a <fifo8_status>
  280227:	83 c4 10             	add    $0x10,%esp
  28022a:	85 c0                	test   %eax,%eax
  28022c:	0f 84 84 00 00 00    	je     2802b6 <bootmain+0x2b6>
				boxfill8(binfo->vram, binfo->scrnx, COL8_840000, 0, 16, 31, 31);//chriszz添加。刷字符区域为蓝色。
  280232:	56                   	push   %esi
  280233:	0f bf 05 f4 0f 00 00 	movswl 0xff4,%eax
  28023a:	6a 1f                	push   $0x1f
  28023c:	6a 1f                	push   $0x1f
  28023e:	6a 10                	push   $0x10
  280240:	6a 00                	push   $0x0
  280242:	6a 09                	push   $0x9
  280244:	50                   	push   %eax
  280245:	ff 35 f8 0f 00 00    	push   0xff8
  28024b:	e8 ff 02 00 00       	call   28054f <boxfill8>
				i=fifo8_get(&keyfifo);
  280250:	83 c4 14             	add    $0x14,%esp
  280253:	ff b5 00 fe ff ff    	push   -0x200(%ebp)
  280259:	e8 a6 0b 00 00       	call   280e04 <fifo8_get>
				io_sti();
  28025e:	fb                   	sti    
				sprintf(s, "%x", i);
  28025f:	83 c4 0c             	add    $0xc,%esp
  280262:	8d b5 40 fe ff ff    	lea    -0x1c0(%ebp),%esi
  280268:	50                   	push   %eax
  280269:	8d 83 f1 df ff ff    	lea    -0x200f(%ebx),%eax
  28026f:	50                   	push   %eax
  280270:	56                   	push   %esi
  280271:	e8 79 07 00 00       	call   2809ef <sprintf>
				boxfill8(binfo->vram, binfo->scrnx, COL8_840000, 0, 16, 31, 31);
  280276:	0f bf 05 f4 0f 00 00 	movswl 0xff4,%eax
  28027d:	83 c4 0c             	add    $0xc,%esp
  280280:	6a 1f                	push   $0x1f
  280282:	6a 1f                	push   $0x1f
  280284:	6a 10                	push   $0x10
  280286:	6a 00                	push   $0x0
  280288:	6a 09                	push   $0x9
  28028a:	50                   	push   %eax
  28028b:	ff 35 f8 0f 00 00    	push   0xff8
  280291:	e8 b9 02 00 00       	call   28054f <boxfill8>
				putfonts8_asc(binfo->vram, binfo->scrnx, 0, 16, COL8_FFFFFF, s);
  280296:	0f bf 05 f4 0f 00 00 	movswl 0xff4,%eax
  28029d:	83 c4 18             	add    $0x18,%esp
  2802a0:	56                   	push   %esi
  2802a1:	6a 07                	push   $0x7
  2802a3:	6a 10                	push   $0x10
  2802a5:	6a 00                	push   $0x0
  2802a7:	50                   	push   %eax
  2802a8:	ff 35 f8 0f 00 00    	push   0xff8
  2802ae:	e8 ae 04 00 00       	call   280761 <putfonts8_asc>
  2802b3:	83 c4 20             	add    $0x20,%esp
			}
			if(fifo8_status(&mousefifo)!=0){
  2802b6:	c7 c6 e0 32 28 00    	mov    $0x2832e0,%esi
  2802bc:	83 ec 0c             	sub    $0xc,%esp
  2802bf:	56                   	push   %esi
  2802c0:	e8 75 0b 00 00       	call   280e3a <fifo8_status>
  2802c5:	83 c4 10             	add    $0x10,%esp
  2802c8:	85 c0                	test   %eax,%eax
  2802ca:	0f 84 ba 01 00 00    	je     28048a <bootmain+0x48a>
				//boxfill8(binfo->vram, binfo->scrnx, COL8_000084, 32, 16, 64, 31);//chriszz添加。刷字符区域为蓝色。
				i=fifo8_get(&mousefifo);
  2802d0:	83 ec 0c             	sub    $0xc,%esp
  2802d3:	56                   	push   %esi
  2802d4:	e8 2b 0b 00 00       	call   280e04 <fifo8_get>
				io_sti();
  2802d9:	fb                   	sti    
				if(mouse_decode(&mdec, i)!=0){
  2802da:	0f b6 c0             	movzbl %al,%eax
  2802dd:	5a                   	pop    %edx
  2802de:	59                   	pop    %ecx
  2802df:	50                   	push   %eax
  2802e0:	8d 85 10 fe ff ff    	lea    -0x1f0(%ebp),%eax
  2802e6:	50                   	push   %eax
  2802e7:	e8 b2 0b 00 00       	call   280e9e <mouse_decode>
  2802ec:	83 c4 10             	add    $0x10,%esp
  2802ef:	85 c0                	test   %eax,%eax
  2802f1:	0f 84 93 01 00 00    	je     28048a <bootmain+0x48a>
					sprintf(s, "[lmr %d %d]", mdec.buf[1], mdec.buf[2]);
  2802f7:	0f b6 85 12 fe ff ff 	movzbl -0x1ee(%ebp),%eax
  2802fe:	8d b5 40 fe ff ff    	lea    -0x1c0(%ebp),%esi
  280304:	50                   	push   %eax
  280305:	0f b6 85 11 fe ff ff 	movzbl -0x1ef(%ebp),%eax
  28030c:	50                   	push   %eax
  28030d:	8d 83 cf df ff ff    	lea    -0x2031(%ebx),%eax
  280313:	50                   	push   %eax
  280314:	56                   	push   %esi
  280315:	e8 d5 06 00 00       	call   2809ef <sprintf>
					switch(mdec.btn){		//用switch替代if语句块。&的做法似乎有问题。
  28031a:	8b 85 1c fe ff ff    	mov    -0x1e4(%ebp),%eax
  280320:	83 c4 10             	add    $0x10,%esp
  280323:	83 f8 02             	cmp    $0x2,%eax
  280326:	74 11                	je     280339 <bootmain+0x339>
  280328:	83 f8 04             	cmp    $0x4,%eax
  28032b:	74 15                	je     280342 <bootmain+0x342>
  28032d:	48                   	dec    %eax
  28032e:	75 19                	jne    280349 <bootmain+0x349>
						case 1:s[1]='L';break;
  280330:	c6 85 41 fe ff ff 4c 	movb   $0x4c,-0x1bf(%ebp)
  280337:	eb 10                	jmp    280349 <bootmain+0x349>
						case 2:s[3]='R';break;
  280339:	c6 85 43 fe ff ff 52 	movb   $0x52,-0x1bd(%ebp)
  280340:	eb 07                	jmp    280349 <bootmain+0x349>
						case 4:s[2]='M';break;
  280342:	c6 85 42 fe ff ff 4d 	movb   $0x4d,-0x1be(%ebp)
					}
					boxfill8(binfo->vram, binfo->scrnx, COL8_008484, 32, 16, 150, 31);
  280349:	50                   	push   %eax
  28034a:	0f bf 05 f4 0f 00 00 	movswl 0xff4,%eax
  280351:	6a 1f                	push   $0x1f
  280353:	68 96 00 00 00       	push   $0x96
  280358:	6a 10                	push   $0x10
  28035a:	6a 20                	push   $0x20
  28035c:	6a 0e                	push   $0xe
  28035e:	50                   	push   %eax
  28035f:	ff 35 f8 0f 00 00    	push   0xff8
  280365:	e8 e5 01 00 00       	call   28054f <boxfill8>
					putfonts8_asc(binfo->vram, binfo->scrnx, 32, 16, COL8_FFFFFF, s);
  28036a:	0f bf 05 f4 0f 00 00 	movswl 0xff4,%eax
  280371:	83 c4 18             	add    $0x18,%esp
  280374:	56                   	push   %esi
  280375:	6a 07                	push   $0x7
  280377:	6a 10                	push   $0x10
  280379:	6a 20                	push   $0x20
  28037b:	50                   	push   %eax
  28037c:	ff 35 f8 0f 00 00    	push   0xff8
  280382:	e8 da 03 00 00       	call   280761 <putfonts8_asc>

					boxfill8(binfo->vram, binfo->scrnx, COL8_008484, mx, my, mx+15, my+15);//刷[原]鼠标位置
  280387:	8b 85 04 fe ff ff    	mov    -0x1fc(%ebp),%eax
  28038d:	83 c4 1c             	add    $0x1c,%esp
  280390:	83 c0 0f             	add    $0xf,%eax
  280393:	50                   	push   %eax
  280394:	8d 47 0f             	lea    0xf(%edi),%eax
  280397:	50                   	push   %eax
  280398:	0f bf 05 f4 0f 00 00 	movswl 0xff4,%eax
  28039f:	ff b5 04 fe ff ff    	push   -0x1fc(%ebp)
  2803a5:	57                   	push   %edi
  2803a6:	6a 0e                	push   $0xe
  2803a8:	50                   	push   %eax
  2803a9:	ff 35 f8 0f 00 00    	push   0xff8
  2803af:	e8 9b 01 00 00       	call   28054f <boxfill8>
  2803b4:	31 d2                	xor    %edx,%edx
  2803b6:	89 f8                	mov    %edi,%eax
  2803b8:	83 c4 20             	add    $0x20,%esp
  2803bb:	03 85 14 fe ff ff    	add    -0x1ec(%ebp),%eax
  2803c1:	0f 48 c2             	cmovs  %edx,%eax
  2803c4:	89 c7                	mov    %eax,%edi
  2803c6:	8b 85 04 fe ff ff    	mov    -0x1fc(%ebp),%eax
  2803cc:	03 85 18 fe ff ff    	add    -0x1e8(%ebp),%eax
  2803d2:	0f 49 d0             	cmovns %eax,%edx
					mx += mdec.x;
					my += mdec.y;
					if(mx<0) mx=0;
					if(my<0) my=0;
					if(mx>binfo->scrnx-16) mx=binfo->scrnx-16;
  2803d5:	0f bf 05 f4 0f 00 00 	movswl 0xff4,%eax
  2803dc:	89 95 04 fe ff ff    	mov    %edx,-0x1fc(%ebp)
  2803e2:	8d 50 f1             	lea    -0xf(%eax),%edx
  2803e5:	39 fa                	cmp    %edi,%edx
  2803e7:	7f 03                	jg     2803ec <bootmain+0x3ec>
  2803e9:	8d 78 f0             	lea    -0x10(%eax),%edi
					if(my>binfo->scrny-16) my=binfo->scrny-16;
  2803ec:	0f bf 05 f6 0f 00 00 	movswl 0xff6,%eax
  2803f3:	8d 50 f1             	lea    -0xf(%eax),%edx
  2803f6:	39 95 04 fe ff ff    	cmp    %edx,-0x1fc(%ebp)
  2803fc:	7c 09                	jl     280407 <bootmain+0x407>
  2803fe:	83 e8 10             	sub    $0x10,%eax
  280401:	89 85 04 fe ff ff    	mov    %eax,-0x1fc(%ebp)
					sprintf(s, "(%d,%d)", mx, my);
  280407:	8d b5 40 fe ff ff    	lea    -0x1c0(%ebp),%esi
  28040d:	ff b5 04 fe ff ff    	push   -0x1fc(%ebp)
  280413:	57                   	push   %edi
  280414:	ff b5 f4 fd ff ff    	push   -0x20c(%ebp)
  28041a:	56                   	push   %esi
  28041b:	e8 cf 05 00 00       	call   2809ef <sprintf>
					boxfill8(binfo->vram, binfo->scrnx, COL8_008484, 0, 0, 79, 15);
  280420:	0f bf 05 f4 0f 00 00 	movswl 0xff4,%eax
  280427:	83 c4 0c             	add    $0xc,%esp
  28042a:	6a 0f                	push   $0xf
  28042c:	6a 4f                	push   $0x4f
  28042e:	6a 00                	push   $0x0
  280430:	6a 00                	push   $0x0
  280432:	6a 0e                	push   $0xe
  280434:	50                   	push   %eax
  280435:	ff 35 f8 0f 00 00    	push   0xff8
  28043b:	e8 0f 01 00 00       	call   28054f <boxfill8>
					putfonts8_asc(binfo->vram, binfo->scrnx, 0, 0, COL8_FFFFFF, s);
  280440:	0f bf 05 f4 0f 00 00 	movswl 0xff4,%eax
  280447:	83 c4 18             	add    $0x18,%esp
  28044a:	56                   	push   %esi
  28044b:	6a 07                	push   $0x7
  28044d:	6a 00                	push   $0x0
  28044f:	6a 00                	push   $0x0
  280451:	50                   	push   %eax
  280452:	ff 35 f8 0f 00 00    	push   0xff8
  280458:	e8 04 03 00 00       	call   280761 <putfonts8_asc>
					putblock8_8(binfo->vram, binfo->scrnx, 16, 16, mx, my, mcursor, 16);//刷[新]鼠标位置
  28045d:	83 c4 20             	add    $0x20,%esp
  280460:	8d 85 e8 fe ff ff    	lea    -0x118(%ebp),%eax
  280466:	6a 10                	push   $0x10
  280468:	50                   	push   %eax
  280469:	0f bf 05 f4 0f 00 00 	movswl 0xff4,%eax
  280470:	ff b5 04 fe ff ff    	push   -0x1fc(%ebp)
  280476:	57                   	push   %edi
  280477:	6a 10                	push   $0x10
  280479:	6a 10                	push   $0x10
  28047b:	50                   	push   %eax
  28047c:	ff 35 f8 0f 00 00    	push   0xff8
  280482:	e8 91 03 00 00       	call   280818 <putblock8_8>
  280487:	83 c4 20             	add    $0x20,%esp
				}
			}
		}
		i=memtest(0x00400000, 0xbfffffff)/(1024 * 1024);
  28048a:	50                   	push   %eax
		sprintf(s, "memory %dMB", i);
  28048b:	8d b5 40 fe ff ff    	lea    -0x1c0(%ebp),%esi
		i=memtest(0x00400000, 0xbfffffff)/(1024 * 1024);
  280491:	50                   	push   %eax
  280492:	68 ff ff ff bf       	push   $0xbfffffff
  280497:	68 00 00 40 00       	push   $0x400000
  28049c:	e8 fd 0a 00 00       	call   280f9e <memtest>
		sprintf(s, "memory %dMB", i);
  2804a1:	83 c4 0c             	add    $0xc,%esp
		i=memtest(0x00400000, 0xbfffffff)/(1024 * 1024);
  2804a4:	c1 e8 14             	shr    $0x14,%eax
		sprintf(s, "memory %dMB", i);
  2804a7:	50                   	push   %eax
  2804a8:	8d 83 db df ff ff    	lea    -0x2025(%ebx),%eax
  2804ae:	50                   	push   %eax
  2804af:	56                   	push   %esi
  2804b0:	e8 3a 05 00 00       	call   2809ef <sprintf>
		putfonts8_asc(binfo->vram, binfo->scrnx, 0, 32, COL8_FFFFFF, s);
  2804b5:	5a                   	pop    %edx
  2804b6:	59                   	pop    %ecx
  2804b7:	56                   	push   %esi
  2804b8:	e9 15 fd ff ff       	jmp    2801d2 <bootmain+0x1d2>

002804bd <clear_screen>:
#include<header.h>


void clear_screen(char color) //15:pure white
{
  2804bd:	55                   	push   %ebp
	int i;
	for(i=0xa0000;i<0xaffff;i++)
  2804be:	b8 00 00 0a 00       	mov    $0xa0000,%eax
{
  2804c3:	89 e5                	mov    %esp,%ebp
  2804c5:	8a 55 08             	mov    0x8(%ebp),%dl
	{
		write_mem8(i,color);  //if we write 15 ,all pixels color will be white,15 mens pure white ,so the screen changes into white
  2804c8:	88 10                	mov    %dl,(%eax)
	for(i=0xa0000;i<0xaffff;i++)
  2804ca:	40                   	inc    %eax
  2804cb:	3d ff ff 0a 00       	cmp    $0xaffff,%eax
  2804d0:	75 f6                	jne    2804c8 <clear_screen+0xb>

	}
}
  2804d2:	5d                   	pop    %ebp
  2804d3:	c3                   	ret    

002804d4 <color_screen>:

void color_screen(char color) //15:pure white
{
	int i;
	color=color;
	for(i=0xa0000;i<0xaffff;i++)
  2804d4:	b8 00 00 0a 00       	mov    $0xa0000,%eax
	{
		write_mem8(i,i&0x0f);  //if we write 15 ,all pixels color will be white,15 mens pure white ,so the screen changes into white
  2804d9:	89 c2                	mov    %eax,%edx
	for(i=0xa0000;i<0xaffff;i++)
  2804db:	40                   	inc    %eax
		write_mem8(i,i&0x0f);  //if we write 15 ,all pixels color will be white,15 mens pure white ,so the screen changes into white
  2804dc:	83 e2 0f             	and    $0xf,%edx
  2804df:	88 50 ff             	mov    %dl,-0x1(%eax)
	for(i=0xa0000;i<0xaffff;i++)
  2804e2:	3d ff ff 0a 00       	cmp    $0xaffff,%eax
  2804e7:	75 f0                	jne    2804d9 <color_screen+0x5>

	}
}
  2804e9:	c3                   	ret    

002804ea <set_palette>:

void set_palette(int start, int end, unsigned char* rgb){
  2804ea:	55                   	push   %ebp
  2804eb:	89 e5                	mov    %esp,%ebp
  2804ed:	56                   	push   %esi
  2804ee:	8b 4d 10             	mov    0x10(%ebp),%ecx
  2804f1:	53                   	push   %ebx
  2804f2:	8b 5d 08             	mov    0x8(%ebp),%ebx
//read eflags and write_eflags
static __inline uint32_t
io_load_eflags(void)
{
        uint32_t eflags;
        __asm __volatile("pushfl; popl %0" : "=r" (eflags));
  2804f5:	9c                   	pushf  
  2804f6:	5e                   	pop    %esi
	int i, eflags;
	eflags = io_load_eflags();	//替代作者的io_load_eflags()
	io_cli();
  2804f7:	fa                   	cli    
	__asm __volatile("outb %0,%w1" : : "a" (data), "d" (port));
  2804f8:	ba c8 03 00 00       	mov    $0x3c8,%edx
  2804fd:	89 d8                	mov    %ebx,%eax
  2804ff:	ee                   	out    %al,(%dx)
  280500:	ba c9 03 00 00       	mov    $0x3c9,%edx
	outb(0x03c8, start);	//替代作者的io_out8()
	for(i=start; i<=end; i++){
  280505:	3b 5d 0c             	cmp    0xc(%ebp),%ebx
  280508:	7f 1a                	jg     280524 <set_palette+0x3a>
		outb(0x03c9,rgb[0]/4);
  28050a:	8a 01                	mov    (%ecx),%al
  28050c:	c0 e8 02             	shr    $0x2,%al
  28050f:	ee                   	out    %al,(%dx)
		outb(0x03c9,rgb[1]/4);
  280510:	8a 41 01             	mov    0x1(%ecx),%al
  280513:	c0 e8 02             	shr    $0x2,%al
  280516:	ee                   	out    %al,(%dx)
		outb(0x03c9,rgb[2]/4);
  280517:	8a 41 02             	mov    0x2(%ecx),%al
  28051a:	c0 e8 02             	shr    $0x2,%al
  28051d:	ee                   	out    %al,(%dx)
		rgb+=3;
  28051e:	83 c1 03             	add    $0x3,%ecx
	for(i=start; i<=end; i++){
  280521:	43                   	inc    %ebx
  280522:	eb e1                	jmp    280505 <set_palette+0x1b>
}

static __inline void
io_store_eflags(uint32_t eflags)
{
        __asm __volatile("pushl %0; popfl" : : "r" (eflags));
  280524:	56                   	push   %esi
  280525:	9d                   	popf   
	}
	io_store_eflags(eflags);	//替代作者的io_store_eflags(eflags)
	return;
}
  280526:	5b                   	pop    %ebx
  280527:	5e                   	pop    %esi
  280528:	5d                   	pop    %ebp
  280529:	c3                   	ret    

0028052a <init_palette>:


void init_palette(void){
  28052a:	e8 3a 0c 00 00       	call   281169 <__x86.get_pc_thunk.ax>
  28052f:	05 a1 2d 00 00       	add    $0x2da1,%eax
  280534:	55                   	push   %ebp
  280535:	89 e5                	mov    %esp,%ebp
  280537:	83 ec 0c             	sub    $0xc,%esp
		0x00,0x00,0x84,   /*12:dark 青*/
		0x84,0x00,0x84,   /*13:dark purper*/
		0x00,0x84,0x84,   /*14:light blue*/
		0x84,0x84,0x84,   /*15:dark gray*/
	};  
	set_palette(0,15,table_rgb);
  28053a:	8d 80 d0 ff ff ff    	lea    -0x30(%eax),%eax
  280540:	50                   	push   %eax
  280541:	6a 0f                	push   $0xf
  280543:	6a 00                	push   $0x0
  280545:	e8 a0 ff ff ff       	call   2804ea <set_palette>
	return;
  28054a:	83 c4 10             	add    $0x10,%esp
}
  28054d:	c9                   	leave  
  28054e:	c3                   	ret    

0028054f <boxfill8>:

void boxfill8(char* vram, int xsize, unsigned char c, int x0, int y0, int x1, int y1){
  28054f:	55                   	push   %ebp
  280550:	89 e5                	mov    %esp,%ebp
  280552:	57                   	push   %edi
  280553:	8b 45 18             	mov    0x18(%ebp),%eax
  280556:	8b 7d 0c             	mov    0xc(%ebp),%edi
  280559:	56                   	push   %esi
  28055a:	53                   	push   %ebx
  28055b:	8a 5d 10             	mov    0x10(%ebp),%bl
  28055e:	89 c1                	mov    %eax,%ecx
  280560:	0f af cf             	imul   %edi,%ecx
	int x, y;
	for(y=y0; y<=y1; y++){
  280563:	3b 45 20             	cmp    0x20(%ebp),%eax
  280566:	7f 18                	jg     280580 <boxfill8+0x31>
		for(x=x0; x<=x1; x++){
			vram[y*xsize+x]=c;
  280568:	8b 75 08             	mov    0x8(%ebp),%esi
		for(x=x0; x<=x1; x++){
  28056b:	8b 55 14             	mov    0x14(%ebp),%edx
			vram[y*xsize+x]=c;
  28056e:	01 ce                	add    %ecx,%esi
		for(x=x0; x<=x1; x++){
  280570:	3b 55 1c             	cmp    0x1c(%ebp),%edx
  280573:	7f 06                	jg     28057b <boxfill8+0x2c>
			vram[y*xsize+x]=c;
  280575:	88 1c 16             	mov    %bl,(%esi,%edx,1)
		for(x=x0; x<=x1; x++){
  280578:	42                   	inc    %edx
  280579:	eb f5                	jmp    280570 <boxfill8+0x21>
	for(y=y0; y<=y1; y++){
  28057b:	40                   	inc    %eax
  28057c:	01 f9                	add    %edi,%ecx
  28057e:	eb e3                	jmp    280563 <boxfill8+0x14>
		}
	}
	return;
}
  280580:	5b                   	pop    %ebx
  280581:	5e                   	pop    %esi
  280582:	5f                   	pop    %edi
  280583:	5d                   	pop    %ebp
  280584:	c3                   	ret    

00280585 <init_screen8>:
   binfo->color_mode = 8;
   binfo->xsize = 320;
   binfo->ysize = 200;
   }
   */
void init_screen8(char *vram, int x, int y){
  280585:	55                   	push   %ebp
  280586:	89 e5                	mov    %esp,%ebp
  280588:	57                   	push   %edi
  280589:	56                   	push   %esi
  28058a:	53                   	push   %ebx
  28058b:	83 ec 20             	sub    $0x20,%esp
  28058e:	8b 5d 0c             	mov    0xc(%ebp),%ebx
  280591:	8b 75 10             	mov    0x10(%ebp),%esi
	boxfill8(vram, x, COL8_008484,  0,     0,      x -  1, y - 29);
  280594:	8d 7b ff             	lea    -0x1(%ebx),%edi
  280597:	8d 46 e3             	lea    -0x1d(%esi),%eax
  28059a:	50                   	push   %eax
  28059b:	57                   	push   %edi
  28059c:	6a 00                	push   $0x0
  28059e:	6a 00                	push   $0x0
  2805a0:	6a 0e                	push   $0xe
  2805a2:	53                   	push   %ebx
  2805a3:	ff 75 08             	push   0x8(%ebp)
  2805a6:	e8 a4 ff ff ff       	call   28054f <boxfill8>
	boxfill8(vram, x, COL8_C6C6C6,  0,     y - 28, x -  1, y - 28);
  2805ab:	83 c4 1c             	add    $0x1c,%esp
  2805ae:	8d 46 e4             	lea    -0x1c(%esi),%eax
  2805b1:	50                   	push   %eax
  2805b2:	57                   	push   %edi
  2805b3:	50                   	push   %eax
  2805b4:	6a 00                	push   $0x0
  2805b6:	6a 08                	push   $0x8
  2805b8:	53                   	push   %ebx
  2805b9:	ff 75 08             	push   0x8(%ebp)
  2805bc:	e8 8e ff ff ff       	call   28054f <boxfill8>
	boxfill8(vram, x, COL8_FFFFFF,  0,     y - 27, x -  1, y - 27);
  2805c1:	83 c4 1c             	add    $0x1c,%esp
  2805c4:	8d 46 e5             	lea    -0x1b(%esi),%eax
  2805c7:	50                   	push   %eax
  2805c8:	57                   	push   %edi
  2805c9:	50                   	push   %eax
  2805ca:	6a 00                	push   $0x0
  2805cc:	6a 07                	push   $0x7
  2805ce:	53                   	push   %ebx
  2805cf:	ff 75 08             	push   0x8(%ebp)
  2805d2:	e8 78 ff ff ff       	call   28054f <boxfill8>
	boxfill8(vram, x, COL8_C6C6C6,  0,     y - 26, x -  1, y -  1);
  2805d7:	83 c4 1c             	add    $0x1c,%esp
  2805da:	8d 46 ff             	lea    -0x1(%esi),%eax
  2805dd:	50                   	push   %eax
  2805de:	8d 46 e6             	lea    -0x1a(%esi),%eax
  2805e1:	57                   	push   %edi

	boxfill8(vram, x, COL8_FFFFFF,  3,     y - 24, 59,     y - 24);
  2805e2:	8d 7e e8             	lea    -0x18(%esi),%edi
	boxfill8(vram, x, COL8_C6C6C6,  0,     y - 26, x -  1, y -  1);
  2805e5:	50                   	push   %eax
  2805e6:	6a 00                	push   $0x0
  2805e8:	6a 08                	push   $0x8
  2805ea:	53                   	push   %ebx
  2805eb:	ff 75 08             	push   0x8(%ebp)
  2805ee:	e8 5c ff ff ff       	call   28054f <boxfill8>
	boxfill8(vram, x, COL8_FFFFFF,  3,     y - 24, 59,     y - 24);
  2805f3:	83 c4 1c             	add    $0x1c,%esp
  2805f6:	57                   	push   %edi
  2805f7:	6a 3b                	push   $0x3b
  2805f9:	57                   	push   %edi
  2805fa:	6a 03                	push   $0x3
  2805fc:	6a 07                	push   $0x7
  2805fe:	53                   	push   %ebx
  2805ff:	ff 75 08             	push   0x8(%ebp)
  280602:	e8 48 ff ff ff       	call   28054f <boxfill8>
	boxfill8(vram, x, COL8_FFFFFF,  2,     y - 24,  2,     y -  4);
  280607:	83 c4 1c             	add    $0x1c,%esp
  28060a:	8d 4e fc             	lea    -0x4(%esi),%ecx
  28060d:	51                   	push   %ecx
  28060e:	6a 02                	push   $0x2
  280610:	57                   	push   %edi
  280611:	6a 02                	push   $0x2
  280613:	6a 07                	push   $0x7
  280615:	53                   	push   %ebx
  280616:	ff 75 08             	push   0x8(%ebp)
  280619:	89 4d e4             	mov    %ecx,-0x1c(%ebp)
  28061c:	e8 2e ff ff ff       	call   28054f <boxfill8>
	boxfill8(vram, x, COL8_848484,  3,     y -  4, 59,     y -  4);
  280621:	8b 4d e4             	mov    -0x1c(%ebp),%ecx
  280624:	83 c4 1c             	add    $0x1c,%esp
  280627:	51                   	push   %ecx
  280628:	6a 3b                	push   $0x3b
  28062a:	51                   	push   %ecx
  28062b:	6a 03                	push   $0x3
  28062d:	6a 0f                	push   $0xf
  28062f:	53                   	push   %ebx
  280630:	ff 75 08             	push   0x8(%ebp)
  280633:	89 4d d8             	mov    %ecx,-0x28(%ebp)
  280636:	e8 14 ff ff ff       	call   28054f <boxfill8>
	boxfill8(vram, x, COL8_848484, 59,     y - 23, 59,     y -  5);
  28063b:	8d 46 e9             	lea    -0x17(%esi),%eax
  28063e:	83 c4 1c             	add    $0x1c,%esp
  280641:	89 45 e4             	mov    %eax,-0x1c(%ebp)
  280644:	8d 46 fb             	lea    -0x5(%esi),%eax
	boxfill8(vram, x, COL8_000000,  2,     y -  3, 59,     y -  3);
  280647:	83 ee 03             	sub    $0x3,%esi
	boxfill8(vram, x, COL8_848484, 59,     y - 23, 59,     y -  5);
  28064a:	50                   	push   %eax
  28064b:	6a 3b                	push   $0x3b
  28064d:	ff 75 e4             	push   -0x1c(%ebp)
  280650:	6a 3b                	push   $0x3b
  280652:	6a 0f                	push   $0xf
  280654:	53                   	push   %ebx
  280655:	ff 75 08             	push   0x8(%ebp)
  280658:	e8 f2 fe ff ff       	call   28054f <boxfill8>
	boxfill8(vram, x, COL8_000000,  2,     y -  3, 59,     y -  3);
  28065d:	83 c4 1c             	add    $0x1c,%esp
  280660:	56                   	push   %esi
  280661:	6a 3b                	push   $0x3b
  280663:	56                   	push   %esi
  280664:	6a 02                	push   $0x2
  280666:	6a 00                	push   $0x0
  280668:	53                   	push   %ebx
  280669:	ff 75 08             	push   0x8(%ebp)
  28066c:	e8 de fe ff ff       	call   28054f <boxfill8>
	boxfill8(vram, x, COL8_000000, 60,     y - 24, 60,     y -  3);
  280671:	83 c4 1c             	add    $0x1c,%esp
  280674:	56                   	push   %esi
  280675:	6a 3c                	push   $0x3c
  280677:	57                   	push   %edi
  280678:	6a 3c                	push   $0x3c
  28067a:	6a 00                	push   $0x0
  28067c:	53                   	push   %ebx
  28067d:	ff 75 08             	push   0x8(%ebp)
  280680:	e8 ca fe ff ff       	call   28054f <boxfill8>

	boxfill8(vram, x, COL8_848484, x - 47, y - 24, x -  4, y - 24);
  280685:	83 c4 1c             	add    $0x1c,%esp
  280688:	8d 53 fc             	lea    -0x4(%ebx),%edx
  28068b:	8d 43 d1             	lea    -0x2f(%ebx),%eax
  28068e:	57                   	push   %edi
  28068f:	52                   	push   %edx
  280690:	57                   	push   %edi
  280691:	50                   	push   %eax
  280692:	6a 0f                	push   $0xf
  280694:	53                   	push   %ebx
  280695:	ff 75 08             	push   0x8(%ebp)
  280698:	89 55 dc             	mov    %edx,-0x24(%ebp)
  28069b:	89 45 e0             	mov    %eax,-0x20(%ebp)
  28069e:	e8 ac fe ff ff       	call   28054f <boxfill8>
	boxfill8(vram, x, COL8_848484, x - 47, y - 23, x - 47, y -  4);
  2806a3:	8b 45 e0             	mov    -0x20(%ebp),%eax
  2806a6:	8b 4d d8             	mov    -0x28(%ebp),%ecx
  2806a9:	83 c4 1c             	add    $0x1c,%esp
  2806ac:	51                   	push   %ecx
  2806ad:	50                   	push   %eax
  2806ae:	ff 75 e4             	push   -0x1c(%ebp)
  2806b1:	50                   	push   %eax
  2806b2:	6a 0f                	push   $0xf
  2806b4:	53                   	push   %ebx
  2806b5:	ff 75 08             	push   0x8(%ebp)
  2806b8:	89 45 e4             	mov    %eax,-0x1c(%ebp)
  2806bb:	e8 8f fe ff ff       	call   28054f <boxfill8>
	boxfill8(vram, x, COL8_FFFFFF, x - 47, y -  3, x -  4, y -  3);
  2806c0:	8b 55 dc             	mov    -0x24(%ebp),%edx
  2806c3:	8b 45 e4             	mov    -0x1c(%ebp),%eax
  2806c6:	83 c4 1c             	add    $0x1c,%esp
  2806c9:	56                   	push   %esi
  2806ca:	52                   	push   %edx
  2806cb:	56                   	push   %esi
  2806cc:	50                   	push   %eax
  2806cd:	6a 07                	push   $0x7
  2806cf:	53                   	push   %ebx
  2806d0:	ff 75 08             	push   0x8(%ebp)
  2806d3:	e8 77 fe ff ff       	call   28054f <boxfill8>
	boxfill8(vram, x, COL8_FFFFFF, x -  3, y - 24, x -  3, y -  3);
  2806d8:	83 c4 1c             	add    $0x1c,%esp
  2806db:	8d 43 fd             	lea    -0x3(%ebx),%eax
  2806de:	56                   	push   %esi
  2806df:	50                   	push   %eax
  2806e0:	57                   	push   %edi
  2806e1:	50                   	push   %eax
  2806e2:	6a 07                	push   $0x7
  2806e4:	53                   	push   %ebx
  2806e5:	ff 75 08             	push   0x8(%ebp)
  2806e8:	e8 62 fe ff ff       	call   28054f <boxfill8>
	return;
  2806ed:	83 c4 20             	add    $0x20,%esp
}
  2806f0:	8d 65 f4             	lea    -0xc(%ebp),%esp
  2806f3:	5b                   	pop    %ebx
  2806f4:	5e                   	pop    %esi
  2806f5:	5f                   	pop    %edi
  2806f6:	5d                   	pop    %ebp
  2806f7:	c3                   	ret    

002806f8 <putfont8>:


void putfont8(char *vram, int xsize, int x, int y, char c, char *font){
  2806f8:	55                   	push   %ebp
  2806f9:	89 e5                	mov    %esp,%ebp
  2806fb:	56                   	push   %esi
	int i;
	char *p, d /* data */;
	for (i = 0; i < 16; i++) {
  2806fc:	31 f6                	xor    %esi,%esi
void putfont8(char *vram, int xsize, int x, int y, char c, char *font){
  2806fe:	8b 4d 0c             	mov    0xc(%ebp),%ecx
  280701:	8b 45 14             	mov    0x14(%ebp),%eax
  280704:	53                   	push   %ebx
  280705:	8a 55 18             	mov    0x18(%ebp),%dl
  280708:	0f af c1             	imul   %ecx,%eax
  28070b:	03 45 10             	add    0x10(%ebp),%eax
  28070e:	03 45 08             	add    0x8(%ebp),%eax
		p = vram + (y + i) * xsize + x;
		d = font[i];
  280711:	8b 5d 1c             	mov    0x1c(%ebp),%ebx
  280714:	8a 1c 33             	mov    (%ebx,%esi,1),%bl
		if ((d & 0x80) != 0) { p[0] = c; }
  280717:	84 db                	test   %bl,%bl
  280719:	79 02                	jns    28071d <putfont8+0x25>
  28071b:	88 10                	mov    %dl,(%eax)
		if ((d & 0x40) != 0) { p[1] = c; }
  28071d:	f6 c3 40             	test   $0x40,%bl
  280720:	74 03                	je     280725 <putfont8+0x2d>
  280722:	88 50 01             	mov    %dl,0x1(%eax)
		if ((d & 0x20) != 0) { p[2] = c; }
  280725:	f6 c3 20             	test   $0x20,%bl
  280728:	74 03                	je     28072d <putfont8+0x35>
  28072a:	88 50 02             	mov    %dl,0x2(%eax)
		if ((d & 0x10) != 0) { p[3] = c; }
  28072d:	f6 c3 10             	test   $0x10,%bl
  280730:	74 03                	je     280735 <putfont8+0x3d>
  280732:	88 50 03             	mov    %dl,0x3(%eax)
		if ((d & 0x08) != 0) { p[4] = c; }
  280735:	f6 c3 08             	test   $0x8,%bl
  280738:	74 03                	je     28073d <putfont8+0x45>
  28073a:	88 50 04             	mov    %dl,0x4(%eax)
		if ((d & 0x04) != 0) { p[5] = c; }
  28073d:	f6 c3 04             	test   $0x4,%bl
  280740:	74 03                	je     280745 <putfont8+0x4d>
  280742:	88 50 05             	mov    %dl,0x5(%eax)
		if ((d & 0x02) != 0) { p[6] = c; }
  280745:	f6 c3 02             	test   $0x2,%bl
  280748:	74 03                	je     28074d <putfont8+0x55>
  28074a:	88 50 06             	mov    %dl,0x6(%eax)
		if ((d & 0x01) != 0) { p[7] = c; }
  28074d:	80 e3 01             	and    $0x1,%bl
  280750:	74 03                	je     280755 <putfont8+0x5d>
  280752:	88 50 07             	mov    %dl,0x7(%eax)
	for (i = 0; i < 16; i++) {
  280755:	46                   	inc    %esi
  280756:	01 c8                	add    %ecx,%eax
  280758:	83 fe 10             	cmp    $0x10,%esi
  28075b:	75 b4                	jne    280711 <putfont8+0x19>
	}
	return;
}
  28075d:	5b                   	pop    %ebx
  28075e:	5e                   	pop    %esi
  28075f:	5d                   	pop    %ebp
  280760:	c3                   	ret    

00280761 <putfonts8_asc>:

void putfonts8_asc(char* vram, int xsize, int x, int y, char c, char *s){
  280761:	e8 03 0a 00 00       	call   281169 <__x86.get_pc_thunk.ax>
  280766:	05 6a 2b 00 00       	add    $0x2b6a,%eax
  28076b:	55                   	push   %ebp
  28076c:	89 e5                	mov    %esp,%ebp
  28076e:	57                   	push   %edi
  28076f:	56                   	push   %esi
  280770:	53                   	push   %ebx
  280771:	83 ec 0c             	sub    $0xc,%esp
  280774:	8b 75 10             	mov    0x10(%ebp),%esi
	//其实这就是一个简易版本的printf
	extern char hankaku[2048];
	for(; *s!=0x00; s++){
		putfont8(vram, xsize, x, y, c, hankaku+*s*16);
  280777:	c7 c7 c0 18 28 00    	mov    $0x2818c0,%edi
  28077d:	0f be 5d 18          	movsbl 0x18(%ebp),%ebx
	for(; *s!=0x00; s++){
  280781:	8b 45 1c             	mov    0x1c(%ebp),%eax
  280784:	0f be 00             	movsbl (%eax),%eax
  280787:	84 c0                	test   %al,%al
  280789:	74 23                	je     2807ae <putfonts8_asc+0x4d>
		putfont8(vram, xsize, x, y, c, hankaku+*s*16);
  28078b:	c1 e0 04             	shl    $0x4,%eax
  28078e:	52                   	push   %edx
  28078f:	01 f8                	add    %edi,%eax
  280791:	52                   	push   %edx
  280792:	50                   	push   %eax
  280793:	53                   	push   %ebx
  280794:	ff 75 14             	push   0x14(%ebp)
  280797:	56                   	push   %esi
		x+=8;
  280798:	83 c6 08             	add    $0x8,%esi
		putfont8(vram, xsize, x, y, c, hankaku+*s*16);
  28079b:	ff 75 0c             	push   0xc(%ebp)
  28079e:	ff 75 08             	push   0x8(%ebp)
  2807a1:	e8 52 ff ff ff       	call   2806f8 <putfont8>
	for(; *s!=0x00; s++){
  2807a6:	ff 45 1c             	incl   0x1c(%ebp)
  2807a9:	83 c4 20             	add    $0x20,%esp
  2807ac:	eb d3                	jmp    280781 <putfonts8_asc+0x20>
	}
	return;
}
  2807ae:	8d 65 f4             	lea    -0xc(%ebp),%esp
  2807b1:	5b                   	pop    %ebx
  2807b2:	5e                   	pop    %esi
  2807b3:	5f                   	pop    %edi
  2807b4:	5d                   	pop    %ebp
  2807b5:	c3                   	ret    

002807b6 <init_mouse_cursor8>:

void init_mouse_cursor8(char *mouse,char bg){
  2807b6:	55                   	push   %ebp
  2807b7:	89 e5                	mov    %esp,%ebp
  2807b9:	57                   	push   %edi
  2807ba:	56                   	push   %esi
  2807bb:	53                   	push   %ebx
  2807bc:	52                   	push   %edx
  2807bd:	8a 45 0c             	mov    0xc(%ebp),%al
  2807c0:	e8 a8 09 00 00       	call   28116d <__x86.get_pc_thunk.dx>
  2807c5:	81 c2 0b 2b 00 00    	add    $0x2b0b,%edx
  2807cb:	88 45 f3             	mov    %al,-0xd(%ebp)
		"............*OO*",
		".............***"
	};
	int x,y;
	for(y=0;y<16;y++){
		for(x=0;x<16;x++){
  2807ce:	31 c0                	xor    %eax,%eax
			switch (cursor[y][x]){
  2807d0:	8d ba b0 de ff ff    	lea    -0x2150(%edx),%edi
  2807d6:	8b 55 08             	mov    0x8(%ebp),%edx
		for(x=0;x<16;x++){
  2807d9:	31 c9                	xor    %ecx,%ecx
			switch (cursor[y][x]){
  2807db:	8d 34 38             	lea    (%eax,%edi,1),%esi
  2807de:	01 c2                	add    %eax,%edx
  2807e0:	8a 1c 0e             	mov    (%esi,%ecx,1),%bl
  2807e3:	80 fb 2e             	cmp    $0x2e,%bl
  2807e6:	74 0f                	je     2807f7 <init_mouse_cursor8+0x41>
  2807e8:	80 fb 4f             	cmp    $0x4f,%bl
  2807eb:	74 11                	je     2807fe <init_mouse_cursor8+0x48>
  2807ed:	80 fb 2a             	cmp    $0x2a,%bl
  2807f0:	75 0f                	jne    280801 <init_mouse_cursor8+0x4b>
				case '.':mouse[x+16*y]=bg;break;  //background
				case '*':mouse[x+16*y]=outline;break;   //outline
  2807f2:	c6 02 00             	movb   $0x0,(%edx)
  2807f5:	eb 0a                	jmp    280801 <init_mouse_cursor8+0x4b>
				case '.':mouse[x+16*y]=bg;break;  //background
  2807f7:	8a 5d f3             	mov    -0xd(%ebp),%bl
  2807fa:	88 1a                	mov    %bl,(%edx)
  2807fc:	eb 03                	jmp    280801 <init_mouse_cursor8+0x4b>
				case 'O':mouse[x+16*y]=inside;break;  //inside
  2807fe:	c6 02 02             	movb   $0x2,(%edx)
		for(x=0;x<16;x++){
  280801:	41                   	inc    %ecx
  280802:	42                   	inc    %edx
  280803:	83 f9 10             	cmp    $0x10,%ecx
  280806:	75 d8                	jne    2807e0 <init_mouse_cursor8+0x2a>
	for(y=0;y<16;y++){
  280808:	83 c0 10             	add    $0x10,%eax
  28080b:	3d 00 01 00 00       	cmp    $0x100,%eax
  280810:	75 c4                	jne    2807d6 <init_mouse_cursor8+0x20>
			}
		}
	}
}
  280812:	58                   	pop    %eax
  280813:	5b                   	pop    %ebx
  280814:	5e                   	pop    %esi
  280815:	5f                   	pop    %edi
  280816:	5d                   	pop    %ebp
  280817:	c3                   	ret    

00280818 <putblock8_8>:

void putblock8_8(char *vram,int xsize,int pxsize,int pysize,int px0,int py0,char *buf,int bxsize){
  280818:	55                   	push   %ebp
	//显示鼠标,display_mouse 
	int x, y;
	for(y=0; y<pysize; y++){
  280819:	31 c9                	xor    %ecx,%ecx
void putblock8_8(char *vram,int xsize,int pxsize,int pysize,int px0,int py0,char *buf,int bxsize){
  28081b:	89 e5                	mov    %esp,%ebp
  28081d:	57                   	push   %edi
  28081e:	56                   	push   %esi
  28081f:	53                   	push   %ebx
  280820:	83 ec 08             	sub    $0x8,%esp
		for(x=0; x<pxsize; x++){
			vram[(py0+y)*xsize+(px0+x)]=buf[y*bxsize+x];
  280823:	8b 45 18             	mov    0x18(%ebp),%eax
  280826:	03 45 08             	add    0x8(%ebp),%eax
	for(y=0; y<pysize; y++){
  280829:	c7 45 f0 00 00 00 00 	movl   $0x0,-0x10(%ebp)
  280830:	8b 5d 1c             	mov    0x1c(%ebp),%ebx
  280833:	0f af 5d 0c          	imul   0xc(%ebp),%ebx
			vram[(py0+y)*xsize+(px0+x)]=buf[y*bxsize+x];
  280837:	89 45 ec             	mov    %eax,-0x14(%ebp)
	for(y=0; y<pysize; y++){
  28083a:	8b 45 f0             	mov    -0x10(%ebp),%eax
  28083d:	3b 45 14             	cmp    0x14(%ebp),%eax
  280840:	7d 26                	jge    280868 <putblock8_8+0x50>
			vram[(py0+y)*xsize+(px0+x)]=buf[y*bxsize+x];
  280842:	8b 55 ec             	mov    -0x14(%ebp),%edx
		for(x=0; x<pxsize; x++){
  280845:	31 c0                	xor    %eax,%eax
			vram[(py0+y)*xsize+(px0+x)]=buf[y*bxsize+x];
  280847:	8d 34 1a             	lea    (%edx,%ebx,1),%esi
		for(x=0; x<pxsize; x++){
  28084a:	3b 45 10             	cmp    0x10(%ebp),%eax
  28084d:	7d 0e                	jge    28085d <putblock8_8+0x45>
			vram[(py0+y)*xsize+(px0+x)]=buf[y*bxsize+x];
  28084f:	8b 7d 20             	mov    0x20(%ebp),%edi
  280852:	01 cf                	add    %ecx,%edi
  280854:	8a 14 07             	mov    (%edi,%eax,1),%dl
  280857:	88 14 06             	mov    %dl,(%esi,%eax,1)
		for(x=0; x<pxsize; x++){
  28085a:	40                   	inc    %eax
  28085b:	eb ed                	jmp    28084a <putblock8_8+0x32>
	for(y=0; y<pysize; y++){
  28085d:	ff 45 f0             	incl   -0x10(%ebp)
  280860:	03 4d 24             	add    0x24(%ebp),%ecx
  280863:	03 5d 0c             	add    0xc(%ebp),%ebx
  280866:	eb d2                	jmp    28083a <putblock8_8+0x22>
		}
	}
}
  280868:	58                   	pop    %eax
  280869:	5a                   	pop    %edx
  28086a:	5b                   	pop    %ebx
  28086b:	5e                   	pop    %esi
  28086c:	5f                   	pop    %edi
  28086d:	5d                   	pop    %ebp
  28086e:	c3                   	ret    

0028086f <boxfill>:

void boxfill(char color, int x0, int y0, int x1, int y1){
  28086f:	55                   	push   %ebp
  280870:	89 e5                	mov    %esp,%ebp
  280872:	83 ec 0c             	sub    $0xc,%esp
	boxfill8((char *)VRAM, 320, color, x0, y0, x1, y1);
  280875:	0f b6 45 08          	movzbl 0x8(%ebp),%eax
  280879:	ff 75 18             	push   0x18(%ebp)
  28087c:	ff 75 14             	push   0x14(%ebp)
  28087f:	ff 75 10             	push   0x10(%ebp)
  280882:	ff 75 0c             	push   0xc(%ebp)
  280885:	50                   	push   %eax
  280886:	68 40 01 00 00       	push   $0x140
  28088b:	68 00 00 e2 ff       	push   $0xffe20000
  280890:	e8 ba fc ff ff       	call   28054f <boxfill8>
}
  280895:	83 c4 20             	add    $0x20,%esp
  280898:	c9                   	leave  
  280899:	c3                   	ret    

0028089a <puts8>:
	sprintf(font,"Debug:var=%x" ,i);
	puts8((char *)VRAM ,320,x,150,1,font);

}

void puts8(char *vram ,int xsize,int x,int y,char color,char *font){
  28089a:	55                   	push   %ebp
  28089b:	89 e5                	mov    %esp,%ebp
  28089d:	57                   	push   %edi
  28089e:	56                   	push   %esi
  28089f:	53                   	push   %ebx
  2808a0:	e8 c0 08 00 00       	call   281165 <__x86.get_pc_thunk.bx>
  2808a5:	81 c3 2b 2a 00 00    	add    $0x2a2b,%ebx
  2808ab:	83 ec 1c             	sub    $0x1c,%esp
  2808ae:	8b 7d 10             	mov    0x10(%ebp),%edi
  2808b1:	8b 75 14             	mov    0x14(%ebp),%esi
	while(*font){
		if(*font=='\n'){
			x=0;
			y=y+16;
		}else{  
			putfont8((char *)vram ,xsize,x,y,color,(char *)(hankaku+(*font)*16));
  2808b4:	0f be 4d 18          	movsbl 0x18(%ebp),%ecx
  2808b8:	c7 c2 c0 18 28 00    	mov    $0x2818c0,%edx
	while(*font){
  2808be:	8b 45 1c             	mov    0x1c(%ebp),%eax
  2808c1:	0f be 00             	movsbl (%eax),%eax
  2808c4:	84 c0                	test   %al,%al
  2808c6:	74 50                	je     280918 <puts8+0x7e>
		if(*font=='\n'){
  2808c8:	3c 0a                	cmp    $0xa,%al
  2808ca:	75 07                	jne    2808d3 <puts8+0x39>
			y=y+16;
  2808cc:	83 c6 10             	add    $0x10,%esi
			x=0;
  2808cf:	31 ff                	xor    %edi,%edi
  2808d1:	eb 40                	jmp    280913 <puts8+0x79>
			putfont8((char *)vram ,xsize,x,y,color,(char *)(hankaku+(*font)*16));
  2808d3:	c1 e0 04             	shl    $0x4,%eax
  2808d6:	83 ec 08             	sub    $0x8,%esp
  2808d9:	89 55 e0             	mov    %edx,-0x20(%ebp)
  2808dc:	01 d0                	add    %edx,%eax
  2808de:	89 4d e4             	mov    %ecx,-0x1c(%ebp)
  2808e1:	50                   	push   %eax
  2808e2:	51                   	push   %ecx
  2808e3:	56                   	push   %esi
  2808e4:	57                   	push   %edi
			x+=8;
  2808e5:	83 c7 08             	add    $0x8,%edi
			putfont8((char *)vram ,xsize,x,y,color,(char *)(hankaku+(*font)*16));
  2808e8:	ff 75 0c             	push   0xc(%ebp)
  2808eb:	ff 75 08             	push   0x8(%ebp)
  2808ee:	e8 05 fe ff ff       	call   2806f8 <putfont8>
			if(x>312){
  2808f3:	83 c4 20             	add    $0x20,%esp
  2808f6:	8b 4d e4             	mov    -0x1c(%ebp),%ecx
  2808f9:	8b 55 e0             	mov    -0x20(%ebp),%edx
  2808fc:	81 ff 38 01 00 00    	cmp    $0x138,%edi
  280902:	7e 0f                	jle    280913 <puts8+0x79>
				x=0;
				y+=16;
  280904:	83 c6 10             	add    $0x10,%esi
				x=0;
  280907:	31 ff                	xor    %edi,%edi
				if(y>183){
  280909:	81 fe b7 00 00 00    	cmp    $0xb7,%esi
  28090f:	7e 02                	jle    280913 <puts8+0x79>
					x=0;
					y=0;
  280911:	31 f6                	xor    %esi,%esi
				}
			}    
		}
		font++;
  280913:	ff 45 1c             	incl   0x1c(%ebp)
  280916:	eb a6                	jmp    2808be <puts8+0x24>
	}
}
  280918:	8d 65 f4             	lea    -0xc(%ebp),%esp
  28091b:	5b                   	pop    %ebx
  28091c:	5e                   	pop    %esi
  28091d:	5f                   	pop    %edi
  28091e:	5d                   	pop    %ebp
  28091f:	c3                   	ret    

00280920 <itoa>:

void itoa(int value,char *buf){
  280920:	55                   	push   %ebp
	char tmp_buf[10] = {0};
  280921:	b9 06 00 00 00       	mov    $0x6,%ecx
  280926:	31 c0                	xor    %eax,%eax
void itoa(int value,char *buf){
  280928:	89 e5                	mov    %esp,%ebp
  28092a:	57                   	push   %edi
  28092b:	56                   	push   %esi
	char tmp_buf[10] = {0};
  28092c:	8d 7d ee             	lea    -0x12(%ebp),%edi
void itoa(int value,char *buf){
  28092f:	53                   	push   %ebx
  280930:	83 ec 10             	sub    $0x10,%esp
  280933:	8b 55 08             	mov    0x8(%ebp),%edx
  280936:	8b 5d 0c             	mov    0xc(%ebp),%ebx
	char tmp_buf[10] = {0};
  280939:	c7 45 ea 00 00 00 00 	movl   $0x0,-0x16(%ebp)
  280940:	f3 aa                	rep stos %al,%es:(%edi)
	char *tbp = tmp_buf;
	if((value >> 31) & 0x1){ // neg num 
  280942:	85 d2                	test   %edx,%edx
  280944:	79 06                	jns    28094c <itoa+0x2c>
		*buf++ = '-';
  280946:	c6 03 2d             	movb   $0x2d,(%ebx)
		value = ~value + 1; 
  280949:	f7 da                	neg    %edx
		*buf++ = '-';
  28094b:	43                   	inc    %ebx
  28094c:	8d 4d ea             	lea    -0x16(%ebp),%ecx
	}

	do{
		*tbp++ = ('0' + (char)(value % 10));
  28094f:	be 0a 00 00 00       	mov    $0xa,%esi
  280954:	89 cf                	mov    %ecx,%edi
  280956:	89 d0                	mov    %edx,%eax
  280958:	41                   	inc    %ecx
  280959:	99                   	cltd   
  28095a:	f7 fe                	idiv   %esi
  28095c:	83 c2 30             	add    $0x30,%edx
  28095f:	88 51 ff             	mov    %dl,-0x1(%ecx)
		value /= 10;
  280962:	89 c2                	mov    %eax,%edx
	}while(value);
  280964:	85 c0                	test   %eax,%eax
  280966:	75 ee                	jne    280956 <itoa+0x36>
  280968:	89 de                	mov    %ebx,%esi
  28096a:	89 c8                	mov    %ecx,%eax
	while(tmp_buf != tbp--)
  28096c:	39 c7                	cmp    %eax,%edi
  28096e:	74 0a                	je     28097a <itoa+0x5a>
		*buf++ = *tbp;
  280970:	8a 50 ff             	mov    -0x1(%eax),%dl
  280973:	46                   	inc    %esi
  280974:	48                   	dec    %eax
  280975:	88 56 ff             	mov    %dl,-0x1(%esi)
  280978:	eb f2                	jmp    28096c <itoa+0x4c>
	*buf='\0';
  28097a:	29 f9                	sub    %edi,%ecx
  28097c:	c6 04 0b 00          	movb   $0x0,(%ebx,%ecx,1)
}
  280980:	83 c4 10             	add    $0x10,%esp
  280983:	5b                   	pop    %ebx
  280984:	5e                   	pop    %esi
  280985:	5f                   	pop    %edi
  280986:	5d                   	pop    %ebp
  280987:	c3                   	ret    

00280988 <xtoa>:
	else
		value = value + 48;
	return value;
}

void xtoa(unsigned int value,char *buf){
  280988:	55                   	push   %ebp
	char tmp_buf[30] = {0};
  280989:	31 c0                	xor    %eax,%eax
  28098b:	b9 1a 00 00 00       	mov    $0x1a,%ecx
void xtoa(unsigned int value,char *buf){
  280990:	89 e5                	mov    %esp,%ebp
  280992:	57                   	push   %edi
  280993:	56                   	push   %esi
	char tmp_buf[30] = {0};
  280994:	8d 7d da             	lea    -0x26(%ebp),%edi
void xtoa(unsigned int value,char *buf){
  280997:	53                   	push   %ebx
  280998:	83 ec 20             	sub    $0x20,%esp
  28099b:	8b 55 0c             	mov    0xc(%ebp),%edx
  28099e:	8b 75 08             	mov    0x8(%ebp),%esi
	char tmp_buf[30] = {0};
  2809a1:	c7 45 d6 00 00 00 00 	movl   $0x0,-0x2a(%ebp)
  2809a8:	f3 aa                	rep stos %al,%es:(%edi)
	char *tbp = tmp_buf;
  2809aa:	8d 45 d6             	lea    -0x2a(%ebp),%eax

	*buf++='0';
  2809ad:	66 c7 02 30 78       	movw   $0x7830,(%edx)
  2809b2:	89 c7                	mov    %eax,%edi
	*buf++='x';
	do{
		// *tbp++ = ('0' + (char)(value % 16));//得到低位数字
		*tbp++=fourbtoc(value&0x0000000f);
  2809b4:	89 f1                	mov    %esi,%ecx
  2809b6:	40                   	inc    %eax
  2809b7:	83 e1 0f             	and    $0xf,%ecx
		value = value + 48;
  2809ba:	8d 59 30             	lea    0x30(%ecx),%ebx
	if(value >= 10)
  2809bd:	83 f9 09             	cmp    $0x9,%ecx
  2809c0:	7e 03                	jle    2809c5 <xtoa+0x3d>
		value = value - 10 + 65;
  2809c2:	8d 59 37             	lea    0x37(%ecx),%ebx

		//*tbp++ = ((value % 16)>9)?('A' + (char)(value % 16-10)):('0' + (char)(value % 16));//得到低位数字
		value >>= 4;
	}while(value);
  2809c5:	c1 ee 04             	shr    $0x4,%esi
	return value;
  2809c8:	88 58 ff             	mov    %bl,-0x1(%eax)
	}while(value);
  2809cb:	75 e7                	jne    2809b4 <xtoa+0x2c>
  2809cd:	8d 72 02             	lea    0x2(%edx),%esi
		*tbp++=fourbtoc(value&0x0000000f);
  2809d0:	89 c1                	mov    %eax,%ecx

	while(tmp_buf != tbp){
  2809d2:	39 f9                	cmp    %edi,%ecx
  2809d4:	74 0a                	je     2809e0 <xtoa+0x58>
		tbp--;
		*buf++ = *tbp;
  2809d6:	8a 59 ff             	mov    -0x1(%ecx),%bl
		tbp--;
  2809d9:	49                   	dec    %ecx
  2809da:	46                   	inc    %esi
		*buf++ = *tbp;
  2809db:	88 5e ff             	mov    %bl,-0x1(%esi)
  2809de:	eb f2                	jmp    2809d2 <xtoa+0x4a>
	}
	*buf='\0';
  2809e0:	29 c8                	sub    %ecx,%eax
  2809e2:	c6 44 02 02 00       	movb   $0x0,0x2(%edx,%eax,1)
}
  2809e7:	83 c4 20             	add    $0x20,%esp
  2809ea:	5b                   	pop    %ebx
  2809eb:	5e                   	pop    %esi
  2809ec:	5f                   	pop    %edi
  2809ed:	5d                   	pop    %ebp
  2809ee:	c3                   	ret    

002809ef <sprintf>:
void sprintf(char *str,char *format ,...){
  2809ef:	55                   	push   %ebp
  2809f0:	89 e5                	mov    %esp,%ebp
  2809f2:	57                   	push   %edi
  2809f3:	56                   	push   %esi
	int *var=(int *)(&format)+1; //得到第一个可变参数的地址
  2809f4:	8d 7d 10             	lea    0x10(%ebp),%edi
void sprintf(char *str,char *format ,...){
  2809f7:	53                   	push   %ebx
  2809f8:	83 ec 14             	sub    $0x14,%esp
  2809fb:	8b 5d 08             	mov    0x8(%ebp),%ebx
	while(*format){
  2809fe:	8b 75 0c             	mov    0xc(%ebp),%esi
  280a01:	8a 06                	mov    (%esi),%al
  280a03:	84 c0                	test   %al,%al
  280a05:	74 7d                	je     280a84 <sprintf+0x95>
			*str++=*format++;
  280a07:	8d 56 01             	lea    0x1(%esi),%edx
  280a0a:	89 55 0c             	mov    %edx,0xc(%ebp)
		if(*format!='%'){
  280a0d:	3c 25                	cmp    $0x25,%al
  280a0f:	74 05                	je     280a16 <sprintf+0x27>
			*str++=*format++;
  280a11:	88 03                	mov    %al,(%ebx)
  280a13:	43                   	inc    %ebx
			continue;
  280a14:	eb e8                	jmp    2809fe <sprintf+0xf>
			switch (*format)
  280a16:	8a 46 01             	mov    0x1(%esi),%al
  280a19:	3c 73                	cmp    $0x73,%al
  280a1b:	74 48                	je     280a65 <sprintf+0x76>
  280a1d:	3c 78                	cmp    $0x78,%al
  280a1f:	74 24                	je     280a45 <sprintf+0x56>
  280a21:	3c 64                	cmp    $0x64,%al
  280a23:	75 51                	jne    280a76 <sprintf+0x87>
					itoa(*var,buf);
  280a25:	8d 45 ea             	lea    -0x16(%ebp),%eax
  280a28:	50                   	push   %eax
  280a29:	ff 37                	push   (%edi)
  280a2b:	89 45 e0             	mov    %eax,-0x20(%ebp)
  280a2e:	e8 ed fe ff ff       	call   280920 <itoa>
					while(*buf){*str++=*buf++;};
  280a33:	59                   	pop    %ecx
  280a34:	58                   	pop    %eax
  280a35:	8b 45 e0             	mov    -0x20(%ebp),%eax
  280a38:	8a 10                	mov    (%eax),%dl
  280a3a:	84 d2                	test   %dl,%dl
  280a3c:	74 38                	je     280a76 <sprintf+0x87>
  280a3e:	43                   	inc    %ebx
  280a3f:	40                   	inc    %eax
  280a40:	88 53 ff             	mov    %dl,-0x1(%ebx)
  280a43:	eb f3                	jmp    280a38 <sprintf+0x49>
					xtoa(*var,buf);
  280a45:	8d 45 ea             	lea    -0x16(%ebp),%eax
  280a48:	50                   	push   %eax
  280a49:	ff 37                	push   (%edi)
  280a4b:	89 45 e0             	mov    %eax,-0x20(%ebp)
  280a4e:	e8 35 ff ff ff       	call   280988 <xtoa>
					while(*buf){*str++=*buf++;};
  280a53:	58                   	pop    %eax
  280a54:	8b 45 e0             	mov    -0x20(%ebp),%eax
  280a57:	5a                   	pop    %edx
  280a58:	8a 10                	mov    (%eax),%dl
  280a5a:	84 d2                	test   %dl,%dl
  280a5c:	74 18                	je     280a76 <sprintf+0x87>
  280a5e:	43                   	inc    %ebx
  280a5f:	40                   	inc    %eax
  280a60:	88 53 ff             	mov    %dl,-0x1(%ebx)
  280a63:	eb f3                	jmp    280a58 <sprintf+0x69>
					while(*buf){*str++=*buf++;};
  280a65:	8b 07                	mov    (%edi),%eax
  280a67:	29 d8                	sub    %ebx,%eax
  280a69:	8a 14 03             	mov    (%ebx,%eax,1),%dl
  280a6c:	84 d2                	test   %dl,%dl
  280a6e:	74 06                	je     280a76 <sprintf+0x87>
  280a70:	43                   	inc    %ebx
  280a71:	88 53 ff             	mov    %dl,-0x1(%ebx)
  280a74:	eb f3                	jmp    280a69 <sprintf+0x7a>
			format++;
  280a76:	83 c6 02             	add    $0x2,%esi
			var++;
  280a79:	83 c7 04             	add    $0x4,%edi
			format++;
  280a7c:	89 75 0c             	mov    %esi,0xc(%ebp)
  280a7f:	e9 7a ff ff ff       	jmp    2809fe <sprintf+0xf>
	*str='\0';
  280a84:	c6 03 00             	movb   $0x0,(%ebx)
}
  280a87:	8d 65 f4             	lea    -0xc(%ebp),%esp
  280a8a:	5b                   	pop    %ebx
  280a8b:	5e                   	pop    %esi
  280a8c:	5f                   	pop    %edi
  280a8d:	5d                   	pop    %ebp
  280a8e:	c3                   	ret    

00280a8f <printdebug>:
void printdebug(int i,int x){
  280a8f:	e8 d5 06 00 00       	call   281169 <__x86.get_pc_thunk.ax>
  280a94:	05 3c 28 00 00       	add    $0x283c,%eax
  280a99:	55                   	push   %ebp
  280a9a:	89 e5                	mov    %esp,%ebp
  280a9c:	53                   	push   %ebx
	sprintf(font,"Debug:var=%x" ,i);
  280a9d:	8d 5d da             	lea    -0x26(%ebp),%ebx
void printdebug(int i,int x){
  280aa0:	83 ec 24             	sub    $0x24,%esp
	sprintf(font,"Debug:var=%x" ,i);
  280aa3:	8d 80 e7 df ff ff    	lea    -0x2019(%eax),%eax
  280aa9:	ff 75 08             	push   0x8(%ebp)
  280aac:	50                   	push   %eax
  280aad:	53                   	push   %ebx
  280aae:	e8 3c ff ff ff       	call   2809ef <sprintf>
	puts8((char *)VRAM ,320,x,150,1,font);
  280ab3:	83 ec 0c             	sub    $0xc,%esp
  280ab6:	53                   	push   %ebx
  280ab7:	6a 01                	push   $0x1
  280ab9:	68 96 00 00 00       	push   $0x96
  280abe:	ff 75 0c             	push   0xc(%ebp)
  280ac1:	68 40 01 00 00       	push   $0x140
  280ac6:	68 00 00 e2 ff       	push   $0xffe20000
  280acb:	e8 ca fd ff ff       	call   28089a <puts8>
}
  280ad0:	8b 5d fc             	mov    -0x4(%ebp),%ebx
  280ad3:	83 c4 30             	add    $0x30,%esp
  280ad6:	c9                   	leave  
  280ad7:	c3                   	ret    

00280ad8 <set_segmdesc>:
	gd->access_right = ar & 0xff;
	gd->offset_high = (offset >> 16) & 0xffff;
	return;
}
*/
void set_segmdesc(struct SEGMENT_DESCRIPTOR *sd, unsigned int limit, int  base, int ar){
  280ad8:	55                   	push   %ebp
  280ad9:	89 e5                	mov    %esp,%ebp
  280adb:	57                   	push   %edi
  280adc:	8b 55 08             	mov    0x8(%ebp),%edx
  280adf:	8b 4d 10             	mov    0x10(%ebp),%ecx
  280ae2:	56                   	push   %esi
  280ae3:	53                   	push   %ebx
  280ae4:	8b 5d 0c             	mov    0xc(%ebp),%ebx
  280ae7:	8b 7d 14             	mov    0x14(%ebp),%edi
	if(limit>0xfffff){
  280aea:	81 fb ff ff 0f 00    	cmp    $0xfffff,%ebx
  280af0:	76 09                	jbe    280afb <set_segmdesc+0x23>
		ar |= 0x8000;
  280af2:	81 cf 00 80 00 00    	or     $0x8000,%edi
		limit /= 0x1000;
  280af8:	c1 eb 0c             	shr    $0xc,%ebx
	}
	sd->limit_low = limit&0xffff;
	sd->base_low = base & 0xffff;
	sd->base_mid = (base>>16)&0xff;
  280afb:	89 ce                	mov    %ecx,%esi
	sd->limit_low = limit&0xffff;
  280afd:	66 89 1a             	mov    %bx,(%edx)
	sd->access_right = ar&0xff;
	sd->limit_high = ((limit>>16) & 0x0f)|((ar>>8)&0xf0);
  280b00:	c1 eb 10             	shr    $0x10,%ebx
	sd->base_mid = (base>>16)&0xff;
  280b03:	c1 fe 10             	sar    $0x10,%esi
	sd->base_low = base & 0xffff;
  280b06:	66 89 4a 02          	mov    %cx,0x2(%edx)
	sd->base_high = (base >> 24) & 0xff;
  280b0a:	c1 e9 18             	shr    $0x18,%ecx
	sd->base_mid = (base>>16)&0xff;
  280b0d:	89 f0                	mov    %esi,%eax
	sd->base_high = (base >> 24) & 0xff;
  280b0f:	88 4a 07             	mov    %cl,0x7(%edx)
	sd->base_mid = (base>>16)&0xff;
  280b12:	88 42 04             	mov    %al,0x4(%edx)
	sd->access_right = ar&0xff;
  280b15:	89 f8                	mov    %edi,%eax
  280b17:	88 42 05             	mov    %al,0x5(%edx)
	sd->limit_high = ((limit>>16) & 0x0f)|((ar>>8)&0xf0);
  280b1a:	89 f8                	mov    %edi,%eax
  280b1c:	c1 f8 08             	sar    $0x8,%eax
  280b1f:	83 e0 f0             	and    $0xfffffff0,%eax
  280b22:	09 d8                	or     %ebx,%eax
  280b24:	88 42 06             	mov    %al,0x6(%edx)
	return;
}
  280b27:	5b                   	pop    %ebx
  280b28:	5e                   	pop    %esi
  280b29:	5f                   	pop    %edi
  280b2a:	5d                   	pop    %ebp
  280b2b:	c3                   	ret    

00280b2c <set_gatedesc>:

void set_gatedesc(struct GATE_DESCRIPTOR *gd, int offset, int selector, int ar){
  280b2c:	55                   	push   %ebp
  280b2d:	89 e5                	mov    %esp,%ebp
  280b2f:	8b 45 08             	mov    0x8(%ebp),%eax
	gd->offset_low = offset & 0xffff;
	gd->selector = selector;
  280b32:	8b 4d 10             	mov    0x10(%ebp),%ecx
void set_gatedesc(struct GATE_DESCRIPTOR *gd, int offset, int selector, int ar){
  280b35:	8b 55 0c             	mov    0xc(%ebp),%edx
	gd->selector = selector;
  280b38:	66 89 48 02          	mov    %cx,0x2(%eax)
	gd->dw_count = (ar>>8)&0xff;
  280b3c:	8b 4d 14             	mov    0x14(%ebp),%ecx
	gd->offset_low = offset & 0xffff;
  280b3f:	66 89 10             	mov    %dx,(%eax)
	gd->access_right = (char)(ar & 0xff);
	gd->offset_high = (offset >> 16) & 0xffff;
  280b42:	c1 ea 10             	shr    $0x10,%edx
	gd->dw_count = (ar>>8)&0xff;
  280b45:	86 e9                	xchg   %ch,%cl
	gd->offset_high = (offset >> 16) & 0xffff;
  280b47:	66 89 50 06          	mov    %dx,0x6(%eax)
	gd->dw_count = (ar>>8)&0xff;
  280b4b:	66 89 48 04          	mov    %cx,0x4(%eax)
	return;
}
  280b4f:	5d                   	pop    %ebp
  280b50:	c3                   	ret    

00280b51 <init_gdtidt>:

void init_gdtidt(void){
  280b51:	55                   	push   %ebp
  280b52:	89 e5                	mov    %esp,%ebp
  280b54:	56                   	push   %esi
  280b55:	be 00 00 27 00       	mov    $0x270000,%esi
  280b5a:	53                   	push   %ebx
  280b5b:	e8 05 06 00 00       	call   281165 <__x86.get_pc_thunk.bx>
  280b60:	81 c3 70 27 00 00    	add    $0x2770,%ebx
	struct GATE_DESCRIPTOR *idt= (struct GATE_DESCRIPTOR*)0x0026f800;
	int i;

	//gdt initialize
	for(i=0; i<8192; i++){
		set_segmdesc(gdt+i, 0, 0, 0);
  280b66:	6a 00                	push   $0x0
  280b68:	6a 00                	push   $0x0
  280b6a:	6a 00                	push   $0x0
  280b6c:	56                   	push   %esi
	for(i=0; i<8192; i++){
  280b6d:	83 c6 08             	add    $0x8,%esi
		set_segmdesc(gdt+i, 0, 0, 0);
  280b70:	e8 63 ff ff ff       	call   280ad8 <set_segmdesc>
	for(i=0; i<8192; i++){
  280b75:	83 c4 10             	add    $0x10,%esp
  280b78:	81 fe 00 00 28 00    	cmp    $0x280000,%esi
  280b7e:	75 e6                	jne    280b66 <init_gdtidt+0x15>
	}
	set_segmdesc(gdt+1, 0xffffffff, 0x00000000, 0x4092);
  280b80:	68 92 40 00 00       	push   $0x4092
  280b85:	6a 00                	push   $0x0
  280b87:	6a ff                	push   $0xffffffff
  280b89:	68 08 00 27 00       	push   $0x270008
  280b8e:	e8 45 ff ff ff       	call   280ad8 <set_segmdesc>
	set_segmdesc(gdt+2, 0x000fffff, 0x00000000, 0x409a);
  280b93:	68 9a 40 00 00       	push   $0x409a
  280b98:	6a 00                	push   $0x0
  280b9a:	68 ff ff 0f 00       	push   $0xfffff
  280b9f:	68 10 00 27 00       	push   $0x270010
  280ba4:	e8 2f ff ff ff       	call   280ad8 <set_segmdesc>
	set_segmdesc(gdt+3, 0x000fffff, 0x00280000, 0x409a);
  280ba9:	83 c4 20             	add    $0x20,%esp
  280bac:	68 9a 40 00 00       	push   $0x409a
  280bb1:	68 00 00 28 00       	push   $0x280000
  280bb6:	68 ff ff 0f 00       	push   $0xfffff
  280bbb:	68 18 00 27 00       	push   $0x270018
  280bc0:	e8 13 ff ff ff       	call   280ad8 <set_segmdesc>
	
	load_gdtr(0xfff, 0x00270000);//??or 0xfff?
  280bc5:	5a                   	pop    %edx
  280bc6:	59                   	pop    %ecx
  280bc7:	68 00 00 27 00       	push   $0x270000
  280bcc:	68 ff 0f 00 00       	push   $0xfff
  280bd1:	e8 a5 01 00 00       	call   280d7b <load_gdtr>
  280bd6:	83 c4 10             	add    $0x10,%esp
  280bd9:	b8 00 f8 26 00       	mov    $0x26f800,%eax
	gd->offset_low = offset & 0xffff;
  280bde:	c7 00 00 00 00 00    	movl   $0x0,(%eax)


	//idt initialize
	for(i=0; i<256; i++){
  280be4:	83 c0 08             	add    $0x8,%eax
	gd->dw_count = (ar>>8)&0xff;
  280be7:	c7 40 fc 00 00 00 00 	movl   $0x0,-0x4(%eax)
	for(i=0; i<256; i++){
  280bee:	3d 00 00 27 00       	cmp    $0x270000,%eax
  280bf3:	75 e9                	jne    280bde <init_gdtidt+0x8d>
	gd->offset_high = (offset >> 16) & 0xffff;
  280bf5:	c7 c0 45 0d 28 00    	mov    $0x280d45,%eax
  280bfb:	ba 00 f8 26 00       	mov    $0x26f800,%edx
  280c00:	89 c1                	mov    %eax,%ecx
  280c02:	c1 e9 10             	shr    $0x10,%ecx
	gd->offset_low = offset & 0xffff;
  280c05:	66 89 02             	mov    %ax,(%edx)
		set_gatedesc(idt+i, 0, 0, 0);
	}

	for(i=0; i<256; i++){
  280c08:	83 c2 08             	add    $0x8,%edx
	gd->selector = selector;
  280c0b:	c7 42 fa 18 00 00 8e 	movl   $0x8e000018,-0x6(%edx)
	gd->offset_high = (offset >> 16) & 0xffff;
  280c12:	66 89 4a fe          	mov    %cx,-0x2(%edx)
	for(i=0; i<256; i++){
  280c16:	81 fa 00 00 27 00    	cmp    $0x270000,%edx
  280c1c:	75 e7                	jne    280c05 <init_gdtidt+0xb4>
	gd->selector = selector;
  280c1e:	c7 05 0a f9 26 00 18 	movl   $0x8e000018,0x26f90a
  280c25:	00 00 8e 
		set_gatedesc(idt+i, (int)asm_inthandler21, 3*8, 0x008e);
	}
	set_gatedesc(idt+0x21, (int)asm_inthandler21-0x280000, 3*8, 0x008e);
  280c28:	2d 00 00 28 00       	sub    $0x280000,%eax
	gd->offset_low = offset & 0xffff;
  280c2d:	66 a3 08 f9 26 00    	mov    %ax,0x26f908
	gd->offset_high = (offset >> 16) & 0xffff;
  280c33:	c1 e8 10             	shr    $0x10,%eax
  280c36:	66 a3 0e f9 26 00    	mov    %ax,0x26f90e
	gd->offset_low = offset & 0xffff;
  280c3c:	c7 c0 60 0d 28 00    	mov    $0x280d60,%eax
	gd->selector = selector;
  280c42:	c7 05 62 f9 26 00 10 	movl   $0x8e000010,0x26f962
  280c49:	00 00 8e 
	gd->offset_low = offset & 0xffff;
  280c4c:	66 a3 60 f9 26 00    	mov    %ax,0x26f960
	gd->offset_high = (offset >> 16) & 0xffff;
  280c52:	c1 e8 10             	shr    $0x10,%eax
  280c55:	66 a3 66 f9 26 00    	mov    %ax,0x26f966
	set_gatedesc(idt+0x2c, (int)asm_inthandler2c, 2*8, AR_INTGATE32);

	load_idtr(0x7ff, 0x0026f800);
  280c5b:	50                   	push   %eax
  280c5c:	50                   	push   %eax
  280c5d:	68 00 f8 26 00       	push   $0x26f800
  280c62:	68 ff 07 00 00       	push   $0x7ff
  280c67:	e8 1f 01 00 00       	call   280d8b <load_idtr>

	return;
  280c6c:	83 c4 10             	add    $0x10,%esp
}
  280c6f:	8d 65 f8             	lea    -0x8(%ebp),%esp
  280c72:	5b                   	pop    %ebx
  280c73:	5e                   	pop    %esi
  280c74:	5d                   	pop    %ebp
  280c75:	c3                   	ret    

00280c76 <init_pic>:

struct KEYBUF keybuf;
struct FIFO8 keyfifo;
struct FIFO8 mousefifo;

void init_pic(void){
  280c76:	55                   	push   %ebp
  280c77:	89 e5                	mov    %esp,%ebp
  280c79:	57                   	push   %edi
  280c7a:	56                   	push   %esi
	__asm __volatile("outb %0,%w1" : : "a" (data), "d" (port));
  280c7b:	be ff ff ff ff       	mov    $0xffffffff,%esi
  280c80:	53                   	push   %ebx
  280c81:	bb 21 00 00 00       	mov    $0x21,%ebx
  280c86:	89 f0                	mov    %esi,%eax
  280c88:	89 da                	mov    %ebx,%edx
  280c8a:	ee                   	out    %al,(%dx)
  280c8b:	b9 a1 00 00 00       	mov    $0xa1,%ecx
  280c90:	89 ca                	mov    %ecx,%edx
  280c92:	ee                   	out    %al,(%dx)
  280c93:	bf 11 00 00 00       	mov    $0x11,%edi
  280c98:	ba 20 00 00 00       	mov    $0x20,%edx
  280c9d:	89 f8                	mov    %edi,%eax
  280c9f:	ee                   	out    %al,(%dx)
  280ca0:	b0 20                	mov    $0x20,%al
  280ca2:	89 da                	mov    %ebx,%edx
  280ca4:	ee                   	out    %al,(%dx)
  280ca5:	b0 04                	mov    $0x4,%al
  280ca7:	ee                   	out    %al,(%dx)
  280ca8:	b0 01                	mov    $0x1,%al
  280caa:	ee                   	out    %al,(%dx)
  280cab:	ba a0 00 00 00       	mov    $0xa0,%edx
  280cb0:	89 f8                	mov    %edi,%eax
  280cb2:	ee                   	out    %al,(%dx)
  280cb3:	b0 28                	mov    $0x28,%al
  280cb5:	89 ca                	mov    %ecx,%edx
  280cb7:	ee                   	out    %al,(%dx)
  280cb8:	b0 02                	mov    $0x2,%al
  280cba:	ee                   	out    %al,(%dx)
  280cbb:	b0 01                	mov    $0x1,%al
  280cbd:	ee                   	out    %al,(%dx)
  280cbe:	b0 fb                	mov    $0xfb,%al
  280cc0:	89 da                	mov    %ebx,%edx
  280cc2:	ee                   	out    %al,(%dx)
  280cc3:	89 f0                	mov    %esi,%eax
  280cc5:	89 ca                	mov    %ecx,%edx
  280cc7:	ee                   	out    %al,(%dx)

	outb(PIC0_IMR, 0xfb);
	outb(PIC1_IMR, 0xff);

	return;
}
  280cc8:	5b                   	pop    %ebx
  280cc9:	5e                   	pop    %esi
  280cca:	5f                   	pop    %edi
  280ccb:	5d                   	pop    %ebp
  280ccc:	c3                   	ret    

00280ccd <inthandler21>:


void inthandler21(int *esp){
  280ccd:	55                   	push   %ebp
  280cce:	b0 61                	mov    $0x61,%al
  280cd0:	ba 20 00 00 00       	mov    $0x20,%edx
  280cd5:	89 e5                	mov    %esp,%ebp
  280cd7:	53                   	push   %ebx
  280cd8:	e8 88 04 00 00       	call   281165 <__x86.get_pc_thunk.bx>
  280cdd:	81 c3 f3 25 00 00    	add    $0x25f3,%ebx
  280ce3:	83 ec 0c             	sub    $0xc,%esp
  280ce6:	ee                   	out    %al,(%dx)
	__asm __volatile("inb %w1,%0" : "=a" (data) : "d" (port));
  280ce7:	ba 60 00 00 00       	mov    $0x60,%edx
  280cec:	ec                   	in     (%dx),%al
		keybuf.next_w++;
		if(keybuf.next_w==32){
			keybuf.next_w=0;
		}
	}*/
	fifo8_put(&keyfifo, data);
  280ced:	0f be c0             	movsbl %al,%eax
  280cf0:	50                   	push   %eax
  280cf1:	8d 83 28 00 00 00    	lea    0x28(%ebx),%eax
  280cf7:	50                   	push   %eax
  280cf8:	e8 c9 00 00 00       	call   280dc6 <fifo8_put>

//	sprintf(s, "%x", data);
//	boxfill8(binfo->vram, binfo->scrnx, COL8_000084, 0, 16, 15, 31);
//	putfonts8_asc(binfo->vram, binfo->scrnx, 0, 16, COL8_FFFFFF, s);
	return;
}
  280cfd:	8b 5d fc             	mov    -0x4(%ebp),%ebx
	return;
  280d00:	83 c4 10             	add    $0x10,%esp
}
  280d03:	c9                   	leave  
  280d04:	c3                   	ret    

00280d05 <inthandler2c>:
		}
	}
	return;
}
*/
void inthandler2c(int *esp){
  280d05:	55                   	push   %ebp
	__asm __volatile("outb %0,%w1" : : "a" (data), "d" (port));
  280d06:	b0 64                	mov    $0x64,%al
  280d08:	ba a0 00 00 00       	mov    $0xa0,%edx
  280d0d:	89 e5                	mov    %esp,%ebp
  280d0f:	53                   	push   %ebx
  280d10:	e8 50 04 00 00       	call   281165 <__x86.get_pc_thunk.bx>
  280d15:	81 c3 bb 25 00 00    	add    $0x25bb,%ebx
  280d1b:	83 ec 0c             	sub    $0xc,%esp
  280d1e:	ee                   	out    %al,(%dx)
  280d1f:	b0 62                	mov    $0x62,%al
  280d21:	ba 20 00 00 00       	mov    $0x20,%edx
  280d26:	ee                   	out    %al,(%dx)
	__asm __volatile("inb %w1,%0" : "=a" (data) : "d" (port));
  280d27:	ba 60 00 00 00       	mov    $0x60,%edx
  280d2c:	ec                   	in     (%dx),%al
	unsigned char data;
	outb(PIC1_OCW2, 0x64);
	outb(PIC0_OCW2, 0X62);
	data = inb(PORT_KEYDAT);
	fifo8_put(&mousefifo, data);
  280d2d:	0f be c0             	movsbl %al,%eax
  280d30:	50                   	push   %eax
  280d31:	8d 83 10 00 00 00    	lea    0x10(%ebx),%eax
  280d37:	50                   	push   %eax
  280d38:	e8 89 00 00 00       	call   280dc6 <fifo8_put>
	putfonts8_asc(binfo->vram, binfo->scrnx, 0, 0, COL8_FFFFFF, "INT 2C (IRQ-12): PS/2 mouse");
	for(;;){
		io_hlt();
	}
	*/
}
  280d3d:	8b 5d fc             	mov    -0x4(%ebp),%ebx
	return;
  280d40:	83 c4 10             	add    $0x10,%esp
}
  280d43:	c9                   	leave  
  280d44:	c3                   	ret    

00280d45 <asm_inthandler21>:
.global load_gdtr 
.global load_idtr

.code32
asm_inthandler21:
  pushw %es
  280d45:	66 06                	pushw  %es
  pushw %ds
  280d47:	66 1e                	pushw  %ds
  pushal
  280d49:	60                   	pusha  
  movl %esp,%eax
  280d4a:	89 e0                	mov    %esp,%eax
  pushl %eax
  280d4c:	50                   	push   %eax
  movw %ss,%ax
  280d4d:	66 8c d0             	mov    %ss,%ax
  movw %ax,%ds
  280d50:	8e d8                	mov    %eax,%ds
  movw %ax,%es
  280d52:	8e c0                	mov    %eax,%es
  call inthandler21
  280d54:	e8 74 ff ff ff       	call   280ccd <inthandler21>
  
  popl %eax
  280d59:	58                   	pop    %eax
  popal
  280d5a:	61                   	popa   
  popw %ds
  280d5b:	66 1f                	popw   %ds
  popW %es
  280d5d:	66 07                	popw   %es
  iretl
  280d5f:	cf                   	iret   

00280d60 <asm_inthandler2c>:

asm_inthandler2c:
	pushw %es
  280d60:	66 06                	pushw  %es
	pushw %ds
  280d62:	66 1e                	pushw  %ds
	pushal
  280d64:	60                   	pusha  
	movl %esp, %eax
  280d65:	89 e0                	mov    %esp,%eax
	pushl %eax
  280d67:	50                   	push   %eax
	movw %ss, %ax
  280d68:	66 8c d0             	mov    %ss,%ax
	movw %ax, %ds
  280d6b:	8e d8                	mov    %eax,%ds
	movw %ax, %es
  280d6d:	8e c0                	mov    %eax,%es
	call inthandler2c
  280d6f:	e8 91 ff ff ff       	call   280d05 <inthandler2c>

	popl %eax
  280d74:	58                   	pop    %eax
	popal
  280d75:	61                   	popa   
	popw %ds
  280d76:	66 1f                	popw   %ds
	popw %es
  280d78:	66 07                	popw   %es
	iretl
  280d7a:	cf                   	iret   

00280d7b <load_gdtr>:


load_gdtr:		#; void load_gdtr(int limit, int addr);
  mov 4(%esp) ,%ax
  280d7b:	66 8b 44 24 04       	mov    0x4(%esp),%ax
  mov %ax,6(%esp)
  280d80:	66 89 44 24 06       	mov    %ax,0x6(%esp)
  lgdt 6(%esp)
  280d85:	0f 01 54 24 06       	lgdtl  0x6(%esp)
  ret
  280d8a:	c3                   	ret    

00280d8b <load_idtr>:


load_idtr:		#; void load_idtr(int limit, int addr);
  mov 4(%esp) ,%ax
  280d8b:	66 8b 44 24 04       	mov    0x4(%esp),%ax
  mov %ax,6(%esp)
  280d90:	66 89 44 24 06       	mov    %ax,0x6(%esp)
  lidt 6(%esp)
  280d95:	0f 01 5c 24 06       	lidtl  0x6(%esp)
  ret
  280d9a:	c3                   	ret    

00280d9b <fifo8_init>:
 * ==================================================
 */
#include <header.h>
#define FLAGS_OVERRUN 0x0001

void fifo8_init(struct FIFO8* fifo, int size, unsigned char *buf){
  280d9b:	55                   	push   %ebp
  280d9c:	89 e5                	mov    %esp,%ebp
  280d9e:	8b 45 08             	mov    0x8(%ebp),%eax
  280da1:	8b 55 0c             	mov    0xc(%ebp),%edx
	fifo->size = size;
	fifo->buf = buf;
  280da4:	8b 4d 10             	mov    0x10(%ebp),%ecx
	fifo->size = size;
  280da7:	89 50 0c             	mov    %edx,0xc(%eax)
	fifo->buf = buf;
  280daa:	89 08                	mov    %ecx,(%eax)
	fifo->free = size;
  280dac:	89 50 10             	mov    %edx,0x10(%eax)
	fifo->flags = 0;
  280daf:	c7 40 14 00 00 00 00 	movl   $0x0,0x14(%eax)
	fifo->p = 0;
  280db6:	c7 40 04 00 00 00 00 	movl   $0x0,0x4(%eax)
	fifo->q = 0;
  280dbd:	c7 40 08 00 00 00 00 	movl   $0x0,0x8(%eax)
	return;
}
  280dc4:	5d                   	pop    %ebp
  280dc5:	c3                   	ret    

00280dc6 <fifo8_put>:

int fifo8_put(struct FIFO8* fifo, char data){
  280dc6:	55                   	push   %ebp
  280dc7:	89 e5                	mov    %esp,%ebp
  280dc9:	53                   	push   %ebx
  280dca:	8b 45 08             	mov    0x8(%ebp),%eax
  280dcd:	8b 5d 0c             	mov    0xc(%ebp),%ebx
	if(fifo->free==0){
  280dd0:	83 78 10 00          	cmpl   $0x0,0x10(%eax)
  280dd4:	75 09                	jne    280ddf <fifo8_put+0x19>
		fifo->flags |= FLAGS_OVERRUN;
  280dd6:	83 48 14 01          	orl    $0x1,0x14(%eax)
		return -1;
  280dda:	83 c8 ff             	or     $0xffffffff,%eax
  280ddd:	eb 22                	jmp    280e01 <fifo8_put+0x3b>
	}
	fifo->buf[fifo->p] = data;
  280ddf:	8b 50 04             	mov    0x4(%eax),%edx
  280de2:	8b 08                	mov    (%eax),%ecx
  280de4:	88 1c 11             	mov    %bl,(%ecx,%edx,1)
	fifo->p++;
  280de7:	8b 48 04             	mov    0x4(%eax),%ecx
  280dea:	8d 51 01             	lea    0x1(%ecx),%edx
  280ded:	89 50 04             	mov    %edx,0x4(%eax)
	if(fifo->p == fifo->size){
  280df0:	3b 50 0c             	cmp    0xc(%eax),%edx
  280df3:	75 07                	jne    280dfc <fifo8_put+0x36>
		fifo->p=0;
  280df5:	c7 40 04 00 00 00 00 	movl   $0x0,0x4(%eax)
	}
	fifo->free--;
  280dfc:	ff 48 10             	decl   0x10(%eax)
	return 0;
  280dff:	31 c0                	xor    %eax,%eax
}
  280e01:	5b                   	pop    %ebx
  280e02:	5d                   	pop    %ebp
  280e03:	c3                   	ret    

00280e04 <fifo8_get>:

int fifo8_get(struct FIFO8* fifo){
  280e04:	55                   	push   %ebp
  280e05:	89 e5                	mov    %esp,%ebp
  280e07:	56                   	push   %esi
  280e08:	8b 55 08             	mov    0x8(%ebp),%edx
  280e0b:	53                   	push   %ebx
  280e0c:	83 cb ff             	or     $0xffffffff,%ebx
	int data;
	if(fifo->free==fifo->size){
  280e0f:	8b 4a 10             	mov    0x10(%edx),%ecx
  280e12:	8b 72 0c             	mov    0xc(%edx),%esi
  280e15:	39 f1                	cmp    %esi,%ecx
  280e17:	74 1b                	je     280e34 <fifo8_get+0x30>
		return -1;
	}
	data = fifo->buf[fifo->q];
  280e19:	8b 42 08             	mov    0x8(%edx),%eax
  280e1c:	8b 1a                	mov    (%edx),%ebx
  280e1e:	0f b6 1c 03          	movzbl (%ebx,%eax,1),%ebx
	fifo->q++;
  280e22:	40                   	inc    %eax
  280e23:	39 c6                	cmp    %eax,%esi
  280e25:	be 00 00 00 00       	mov    $0x0,%esi
  280e2a:	0f 44 c6             	cmove  %esi,%eax
	if(fifo->q==fifo->size){
		fifo->q=0;
	}
	fifo->free++;
  280e2d:	41                   	inc    %ecx
  280e2e:	89 4a 10             	mov    %ecx,0x10(%edx)
	fifo->q++;
  280e31:	89 42 08             	mov    %eax,0x8(%edx)
	return data;
}
  280e34:	89 d8                	mov    %ebx,%eax
  280e36:	5b                   	pop    %ebx
  280e37:	5e                   	pop    %esi
  280e38:	5d                   	pop    %ebp
  280e39:	c3                   	ret    

00280e3a <fifo8_status>:

int fifo8_status(struct FIFO8* fifo){
  280e3a:	55                   	push   %ebp
  280e3b:	89 e5                	mov    %esp,%ebp
  280e3d:	8b 55 08             	mov    0x8(%ebp),%edx
	return fifo->size-fifo->free;
}
  280e40:	5d                   	pop    %ebp
	return fifo->size-fifo->free;
  280e41:	8b 42 0c             	mov    0xc(%edx),%eax
  280e44:	2b 42 10             	sub    0x10(%edx),%eax
}
  280e47:	c3                   	ret    

00280e48 <wait_KBC_sendready>:
  280e48:	ba 64 00 00 00       	mov    $0x64,%edx
  280e4d:	ec                   	in     (%dx),%al
 * ==================================================
 */
#include <header.h>
void wait_KBC_sendready(void){
	for(;;){
		if((inb(PORT_KEYSTA) & KEYSTA_SEND_NOTREADY)==0){
  280e4e:	a8 02                	test   $0x2,%al
  280e50:	75 fb                	jne    280e4d <wait_KBC_sendready+0x5>
			break;
		}
	}
	return;
}
  280e52:	c3                   	ret    

00280e53 <init_keyboard>:

void init_keyboard(void){
  280e53:	55                   	push   %ebp
  280e54:	89 e5                	mov    %esp,%ebp
  280e56:	83 ec 08             	sub    $0x8,%esp
	wait_KBC_sendready();
  280e59:	e8 ea ff ff ff       	call   280e48 <wait_KBC_sendready>
	__asm __volatile("outb %0,%w1" : : "a" (data), "d" (port));
  280e5e:	b0 60                	mov    $0x60,%al
  280e60:	ba 64 00 00 00       	mov    $0x64,%edx
  280e65:	ee                   	out    %al,(%dx)
	outb(PORT_KEYCMD, KEYCMD_WRITE_MODE);
	wait_KBC_sendready();
  280e66:	e8 dd ff ff ff       	call   280e48 <wait_KBC_sendready>
  280e6b:	b0 47                	mov    $0x47,%al
  280e6d:	ba 60 00 00 00       	mov    $0x60,%edx
  280e72:	ee                   	out    %al,(%dx)
	outb(PORT_KEYDAT, KBC_MODE);
	return;
}
  280e73:	c9                   	leave  
  280e74:	c3                   	ret    

00280e75 <enable_mouse>:
	wait_KBC_sendready();
	outb(PORT_KEYDAT, MOUSECMD_ENABLE);
	return;
}
*/
void enable_mouse(struct MOUSE_DEC *mdec)      {
  280e75:	55                   	push   %ebp
  280e76:	89 e5                	mov    %esp,%ebp
  280e78:	83 ec 08             	sub    $0x8,%esp
	wait_KBC_sendready();
  280e7b:	e8 c8 ff ff ff       	call   280e48 <wait_KBC_sendready>
  280e80:	b0 d4                	mov    $0xd4,%al
  280e82:	ba 64 00 00 00       	mov    $0x64,%edx
  280e87:	ee                   	out    %al,(%dx)
	outb(PORT_KEYCMD, KEYCMD_SENDTO_MOUSE);
	wait_KBC_sendready();
  280e88:	e8 bb ff ff ff       	call   280e48 <wait_KBC_sendready>
  280e8d:	b0 f4                	mov    $0xf4,%al
  280e8f:	ba 60 00 00 00       	mov    $0x60,%edx
  280e94:	ee                   	out    %al,(%dx)
	outb(PORT_KEYDAT, MOUSECMD_ENABLE);
	mdec->phase = 0;
  280e95:	8b 45 08             	mov    0x8(%ebp),%eax
  280e98:	c6 40 03 00          	movb   $0x0,0x3(%eax)
	return;
}
  280e9c:	c9                   	leave  
  280e9d:	c3                   	ret    

00280e9e <mouse_decode>:

int mouse_decode(struct MOUSE_DEC *mdec, unsigned char dat){
  280e9e:	55                   	push   %ebp
  280e9f:	89 e5                	mov    %esp,%ebp
  280ea1:	53                   	push   %ebx
  280ea2:	8b 45 08             	mov    0x8(%ebp),%eax
  280ea5:	8b 55 0c             	mov    0xc(%ebp),%edx
	if(mdec->phase==0){
  280ea8:	8a 58 03             	mov    0x3(%eax),%bl
  280eab:	84 db                	test   %bl,%bl
  280ead:	75 0d                	jne    280ebc <mouse_decode+0x1e>
		if(dat==0xfa){
			mdec->phase=1;
		}
		return 0;
  280eaf:	31 c9                	xor    %ecx,%ecx
		if(dat==0xfa){
  280eb1:	80 fa fa             	cmp    $0xfa,%dl
  280eb4:	75 79                	jne    280f2f <mouse_decode+0x91>
			mdec->phase=1;
  280eb6:	c6 40 03 01          	movb   $0x1,0x3(%eax)
  280eba:	eb 73                	jmp    280f2f <mouse_decode+0x91>
	}
	if(mdec->phase==1){
  280ebc:	80 fb 01             	cmp    $0x1,%bl
  280ebf:	75 14                	jne    280ed5 <mouse_decode+0x37>
		if((dat&0xc8)==0x08){
  280ec1:	89 d3                	mov    %edx,%ebx
		return 0;
  280ec3:	31 c9                	xor    %ecx,%ecx
		if((dat&0xc8)==0x08){
  280ec5:	83 e3 c8             	and    $0xffffffc8,%ebx
  280ec8:	80 fb 08             	cmp    $0x8,%bl
  280ecb:	75 62                	jne    280f2f <mouse_decode+0x91>
			mdec->buf[0]=dat;
  280ecd:	88 10                	mov    %dl,(%eax)
			mdec->phase=2;
  280ecf:	c6 40 03 02          	movb   $0x2,0x3(%eax)
  280ed3:	eb 5a                	jmp    280f2f <mouse_decode+0x91>
		}
		return 0;
	}
	if(mdec->phase==2){
  280ed5:	80 fb 02             	cmp    $0x2,%bl
  280ed8:	75 0b                	jne    280ee5 <mouse_decode+0x47>
		mdec->buf[1]=dat;
  280eda:	88 50 01             	mov    %dl,0x1(%eax)
		mdec->phase=3;
		return 0;
  280edd:	31 c9                	xor    %ecx,%ecx
		mdec->phase=3;
  280edf:	c6 40 03 03          	movb   $0x3,0x3(%eax)
		return 0;
  280ee3:	eb 4a                	jmp    280f2f <mouse_decode+0x91>
			mdec->y |= 0xffffff00;
		}
		mdec->y = - mdec->y;
		return 1;
	}
	return -1;
  280ee5:	83 c9 ff             	or     $0xffffffff,%ecx
	if(mdec->phase==3){
  280ee8:	80 fb 03             	cmp    $0x3,%bl
  280eeb:	75 42                	jne    280f2f <mouse_decode+0x91>
		mdec->btn=mdec->buf[0]&0x07;
  280eed:	8a 18                	mov    (%eax),%bl
		mdec->buf[2]=dat;
  280eef:	88 50 02             	mov    %dl,0x2(%eax)
		mdec->y=mdec->buf[2];
  280ef2:	0f b6 d2             	movzbl %dl,%edx
		mdec->phase=1;
  280ef5:	c6 40 03 01          	movb   $0x1,0x3(%eax)
		mdec->btn=mdec->buf[0]&0x07;
  280ef9:	89 d9                	mov    %ebx,%ecx
		mdec->y=mdec->buf[2];
  280efb:	89 50 08             	mov    %edx,0x8(%eax)
		mdec->btn=mdec->buf[0]&0x07;
  280efe:	83 e1 07             	and    $0x7,%ecx
  280f01:	89 48 0c             	mov    %ecx,0xc(%eax)
		mdec->x=mdec->buf[1];
  280f04:	0f b6 48 01          	movzbl 0x1(%eax),%ecx
  280f08:	89 48 04             	mov    %ecx,0x4(%eax)
		if((mdec->buf[0]&0x10)!=0){
  280f0b:	f6 c3 10             	test   $0x10,%bl
  280f0e:	74 09                	je     280f19 <mouse_decode+0x7b>
			mdec->x |= 0xffffff00;
  280f10:	81 c9 00 ff ff ff    	or     $0xffffff00,%ecx
  280f16:	89 48 04             	mov    %ecx,0x4(%eax)
		if((mdec->buf[0]&0x20)!=0){
  280f19:	80 e3 20             	and    $0x20,%bl
  280f1c:	74 09                	je     280f27 <mouse_decode+0x89>
			mdec->y |= 0xffffff00;
  280f1e:	81 ca 00 ff ff ff    	or     $0xffffff00,%edx
  280f24:	89 50 08             	mov    %edx,0x8(%eax)
		mdec->y = - mdec->y;
  280f27:	f7 58 08             	negl   0x8(%eax)
		return 1;
  280f2a:	b9 01 00 00 00       	mov    $0x1,%ecx
}
  280f2f:	89 c8                	mov    %ecx,%eax
  280f31:	5b                   	pop    %ebx
  280f32:	5d                   	pop    %ebp
  280f33:	c3                   	ret    

00280f34 <memtest_sub>:
		store_cr0(cr0);
	}
	return i;
}

unsigned int memtest_sub(unsigned int start, unsigned int end){
  280f34:	55                   	push   %ebp
  280f35:	89 e5                	mov    %esp,%ebp
  280f37:	53                   	push   %ebx
	unsigned int i, old, pat0=0xaa55aa55, pat1=0x55aa55aa;
	volatile unsigned int *p;
	for(i=start; i<=end; i+=0x1000){
  280f38:	8b 45 08             	mov    0x8(%ebp),%eax
  280f3b:	3b 45 0c             	cmp    0xc(%ebp),%eax
  280f3e:	77 5b                	ja     280f9b <memtest_sub+0x67>
		p = (unsigned int *)(i+0xffc);
		old = *p;
  280f40:	8b 98 fc 0f 00 00    	mov    0xffc(%eax),%ebx
  280f46:	8d 88 fc 0f 00 00    	lea    0xffc(%eax),%ecx
		*p = pat0;
  280f4c:	c7 80 fc 0f 00 00 55 	movl   $0xaa55aa55,0xffc(%eax)
  280f53:	aa 55 aa 
		*p ^= 0xffffffff;
  280f56:	8b 90 fc 0f 00 00    	mov    0xffc(%eax),%edx
  280f5c:	f7 d2                	not    %edx
  280f5e:	89 90 fc 0f 00 00    	mov    %edx,0xffc(%eax)
		if(*p!=pat1){
  280f64:	8b 90 fc 0f 00 00    	mov    0xffc(%eax),%edx
  280f6a:	81 fa aa 55 aa 55    	cmp    $0x55aa55aa,%edx
  280f70:	74 04                	je     280f76 <memtest_sub+0x42>
not_memory:
			*p = old;
  280f72:	89 19                	mov    %ebx,(%ecx)
			break;
  280f74:	eb 25                	jmp    280f9b <memtest_sub+0x67>
		}
		*p ^= 0xffffffff;
  280f76:	8b 90 fc 0f 00 00    	mov    0xffc(%eax),%edx
  280f7c:	f7 d2                	not    %edx
  280f7e:	89 90 fc 0f 00 00    	mov    %edx,0xffc(%eax)
		if(*p!=pat0){
  280f84:	8b 90 fc 0f 00 00    	mov    0xffc(%eax),%edx
  280f8a:	81 fa 55 aa 55 aa    	cmp    $0xaa55aa55,%edx
  280f90:	75 e0                	jne    280f72 <memtest_sub+0x3e>
			goto not_memory;
		}
		*p = old;
  280f92:	89 19                	mov    %ebx,(%ecx)
	for(i=start; i<=end; i+=0x1000){
  280f94:	05 00 10 00 00       	add    $0x1000,%eax
  280f99:	eb a0                	jmp    280f3b <memtest_sub+0x7>
	}
	return i;
}
  280f9b:	5b                   	pop    %ebx
  280f9c:	5d                   	pop    %ebp
  280f9d:	c3                   	ret    

00280f9e <memtest>:
unsigned int memtest(unsigned int start, unsigned int end){
  280f9e:	55                   	push   %ebp
  280f9f:	89 e5                	mov    %esp,%ebp
  280fa1:	53                   	push   %ebx
  280fa2:	52                   	push   %edx
        __asm __volatile("pushfl; popl %0" : "=r" (eflags));
  280fa3:	9c                   	pushf  
  280fa4:	58                   	pop    %eax
	eflg |= EFLAGS_AC_BIT;
  280fa5:	0d 00 00 04 00       	or     $0x40000,%eax
        __asm __volatile("pushl %0; popfl" : : "r" (eflags));
  280faa:	50                   	push   %eax
  280fab:	9d                   	popf   
        __asm __volatile("pushfl; popl %0" : "=r" (eflags));
  280fac:	9c                   	pushf  
  280fad:	58                   	pop    %eax
	if((eflg & EFLAGS_AC_BIT)!=0){
  280fae:	89 c3                	mov    %eax,%ebx
	eflg &= ~EFLAGS_AC_BIT;
  280fb0:	25 ff ff fb ff       	and    $0xfffbffff,%eax
	if((eflg & EFLAGS_AC_BIT)!=0){
  280fb5:	81 e3 00 00 04 00    	and    $0x40000,%ebx
        __asm __volatile("pushl %0; popfl" : : "r" (eflags));
  280fbb:	50                   	push   %eax
  280fbc:	9d                   	popf   
	if(flg486!=0){
  280fbd:	85 db                	test   %ebx,%ebx
  280fbf:	74 0b                	je     280fcc <memtest+0x2e>
	__asm __volatile("movl %%cr0,%0" : "=r" (val));
  280fc1:	0f 20 c0             	mov    %cr0,%eax
		cr0 |= CR0_CACHE_DISABLE;
  280fc4:	0d 00 00 00 60       	or     $0x60000000,%eax
	__asm __volatile("movl %0,%%cr0" : : "r" (val));
  280fc9:	0f 22 c0             	mov    %eax,%cr0
	i=memtest_sub(start, end);
  280fcc:	50                   	push   %eax
  280fcd:	50                   	push   %eax
  280fce:	ff 75 0c             	push   0xc(%ebp)
  280fd1:	ff 75 08             	push   0x8(%ebp)
  280fd4:	e8 5b ff ff ff       	call   280f34 <memtest_sub>
	if(flg486!=0){
  280fd9:	83 c4 10             	add    $0x10,%esp
  280fdc:	85 db                	test   %ebx,%ebx
  280fde:	74 0c                	je     280fec <memtest+0x4e>
	__asm __volatile("movl %%cr0,%0" : "=r" (val));
  280fe0:	0f 20 c2             	mov    %cr0,%edx
		cr0 &= ~CR0_CACHE_DISABLE;
  280fe3:	81 e2 ff ff ff 9f    	and    $0x9fffffff,%edx
	__asm __volatile("movl %0,%%cr0" : : "r" (val));
  280fe9:	0f 22 c2             	mov    %edx,%cr0
}
  280fec:	8b 5d fc             	mov    -0x4(%ebp),%ebx
  280fef:	c9                   	leave  
  280ff0:	c3                   	ret    

00280ff1 <memman_init>:

void memman_init(struct MEMMAN *man){
  280ff1:	55                   	push   %ebp
  280ff2:	89 e5                	mov    %esp,%ebp
  280ff4:	8b 45 08             	mov    0x8(%ebp),%eax
	man->frees = 0;
  280ff7:	c7 00 00 00 00 00    	movl   $0x0,(%eax)
	man->maxfrees = 0;
  280ffd:	c7 40 04 00 00 00 00 	movl   $0x0,0x4(%eax)
	man->lostsize = 0;
  281004:	c7 40 08 00 00 00 00 	movl   $0x0,0x8(%eax)
	man->losts = 0;
  28100b:	c7 40 0c 00 00 00 00 	movl   $0x0,0xc(%eax)
	return;
}
  281012:	5d                   	pop    %ebp
  281013:	c3                   	ret    

00281014 <memman_total>:

unsigned int memman_total(struct MEMMAN *man){
  281014:	55                   	push   %ebp
	unsigned int i, t=0;
  281015:	31 d2                	xor    %edx,%edx
	for(i=0; i<man->frees; i++){
  281017:	31 c0                	xor    %eax,%eax
unsigned int memman_total(struct MEMMAN *man){
  281019:	89 e5                	mov    %esp,%ebp
  28101b:	53                   	push   %ebx
  28101c:	8b 4d 08             	mov    0x8(%ebp),%ecx
	for(i=0; i<man->frees; i++){
  28101f:	8b 19                	mov    (%ecx),%ebx
  281021:	39 c3                	cmp    %eax,%ebx
  281023:	74 07                	je     28102c <memman_total+0x18>
		t += man->free[i].size;
  281025:	03 54 c1 14          	add    0x14(%ecx,%eax,8),%edx
	for(i=0; i<man->frees; i++){
  281029:	40                   	inc    %eax
  28102a:	eb f5                	jmp    281021 <memman_total+0xd>
	}
	return t;
}
  28102c:	89 d0                	mov    %edx,%eax
  28102e:	5b                   	pop    %ebx
  28102f:	5d                   	pop    %ebp
  281030:	c3                   	ret    

00281031 <memman_alloc>:

unsigned int memman_alloc(struct MEMMAN *man, unsigned int size){
  281031:	55                   	push   %ebp
  281032:	89 e5                	mov    %esp,%ebp
  281034:	57                   	push   %edi
  281035:	56                   	push   %esi
  281036:	53                   	push   %ebx
  281037:	83 ec 1c             	sub    $0x1c,%esp
  28103a:	8b 55 08             	mov    0x8(%ebp),%edx
	unsigned int i, a;
	for(i=0; i<man->frees; i++){
  28103d:	8b 02                	mov    (%edx),%eax
  28103f:	89 45 e4             	mov    %eax,-0x1c(%ebp)
  281042:	31 c0                	xor    %eax,%eax
  281044:	39 45 e4             	cmp    %eax,-0x1c(%ebp)
  281047:	74 3b                	je     281084 <memman_alloc+0x53>
		if(man->free[i].size >= size){
  281049:	8b 4c c2 14          	mov    0x14(%edx,%eax,8),%ecx
  28104d:	3b 4d 0c             	cmp    0xc(%ebp),%ecx
  281050:	72 2f                	jb     281081 <memman_alloc+0x50>
  281052:	8d 34 c2             	lea    (%edx,%eax,8),%esi
			a = man->free[i].addr;
			man->free[i].addr += size;
  281055:	8b 7d 0c             	mov    0xc(%ebp),%edi
			a = man->free[i].addr;
  281058:	8b 5e 10             	mov    0x10(%esi),%ebx
			man->free[i].addr += size;
  28105b:	01 df                	add    %ebx,%edi
			man->free[i].size -= size;
  28105d:	2b 4d 0c             	sub    0xc(%ebp),%ecx
			man->free[i].addr += size;
  281060:	89 7e 10             	mov    %edi,0x10(%esi)
			man->free[i].size -= size;
  281063:	89 4e 14             	mov    %ecx,0x14(%esi)
			if(man->free[i].size ==0){
  281066:	75 1e                	jne    281086 <memman_alloc+0x55>
				man->frees--;
  281068:	8b 4d e4             	mov    -0x1c(%ebp),%ecx
  28106b:	49                   	dec    %ecx
  28106c:	89 0a                	mov    %ecx,(%edx)
				for(; i<man->frees; i++){
  28106e:	39 c1                	cmp    %eax,%ecx
  281070:	76 14                	jbe    281086 <memman_alloc+0x55>
					man->free[i] = man->free[i+1];
  281072:	40                   	inc    %eax
  281073:	f3 0f 7e 44 c2 10    	movq   0x10(%edx,%eax,8),%xmm0
  281079:	66 0f d6 44 c2 08    	movq   %xmm0,0x8(%edx,%eax,8)
  28107f:	eb ed                	jmp    28106e <memman_alloc+0x3d>
	for(i=0; i<man->frees; i++){
  281081:	40                   	inc    %eax
  281082:	eb c0                	jmp    281044 <memman_alloc+0x13>
				}
			}
			return a;
		}
	}
	return 0;
  281084:	31 db                	xor    %ebx,%ebx
}
  281086:	83 c4 1c             	add    $0x1c,%esp
  281089:	89 d8                	mov    %ebx,%eax
  28108b:	5b                   	pop    %ebx
  28108c:	5e                   	pop    %esi
  28108d:	5f                   	pop    %edi
  28108e:	5d                   	pop    %ebp
  28108f:	c3                   	ret    

00281090 <memman_free>:

int memman_free(struct MEMMAN *man, unsigned int addr, unsigned int size){
  281090:	55                   	push   %ebp
	int i, j;
	for(i=0; i<man->frees; i++){
  281091:	31 c9                	xor    %ecx,%ecx
int memman_free(struct MEMMAN *man, unsigned int addr, unsigned int size){
  281093:	89 e5                	mov    %esp,%ebp
  281095:	57                   	push   %edi
  281096:	8b 45 08             	mov    0x8(%ebp),%eax
  281099:	56                   	push   %esi
  28109a:	53                   	push   %ebx
	for(i=0; i<man->frees; i++){
  28109b:	8b 10                	mov    (%eax),%edx
  28109d:	39 ca                	cmp    %ecx,%edx
  28109f:	7e 10                	jle    2810b1 <memman_free+0x21>
		if(man->free[i].addr > addr){
  2810a1:	8b 75 0c             	mov    0xc(%ebp),%esi
  2810a4:	39 74 c8 10          	cmp    %esi,0x10(%eax,%ecx,8)
  2810a8:	0f 87 a9 00 00 00    	ja     281157 <memman_free+0xc7>
	for(i=0; i<man->frees; i++){
  2810ae:	41                   	inc    %ecx
  2810af:	eb ec                	jmp    28109d <memman_free+0xd>
			break;
		}
	}
	if(i>0){
  2810b1:	85 c9                	test   %ecx,%ecx
  2810b3:	74 41                	je     2810f6 <memman_free+0x66>
  2810b5:	8d 34 c8             	lea    (%eax,%ecx,8),%esi
		if(man->free[i-1].addr + man->free[i-1].size == addr){
  2810b8:	8b 5e 0c             	mov    0xc(%esi),%ebx
  2810bb:	8b 7e 08             	mov    0x8(%esi),%edi
  2810be:	01 df                	add    %ebx,%edi
  2810c0:	3b 7d 0c             	cmp    0xc(%ebp),%edi
  2810c3:	75 4c                	jne    281111 <memman_free+0x81>
			man->free[i-1].size += size;
  2810c5:	03 5d 10             	add    0x10(%ebp),%ebx
  2810c8:	89 5e 0c             	mov    %ebx,0xc(%esi)
			if(i<man->frees){
  2810cb:	39 ca                	cmp    %ecx,%edx
  2810cd:	7e 42                	jle    281111 <memman_free+0x81>
				if(addr+size == man->free[i].addr){
  2810cf:	8b 7d 10             	mov    0x10(%ebp),%edi
  2810d2:	03 7d 0c             	add    0xc(%ebp),%edi
  2810d5:	3b 7e 10             	cmp    0x10(%esi),%edi
  2810d8:	75 37                	jne    281111 <memman_free+0x81>
					man->free[i-1].size += man->free[i].size;
  2810da:	03 5e 14             	add    0x14(%esi),%ebx
					man->frees--;
  2810dd:	4a                   	dec    %edx
					man->free[i-1].size += man->free[i].size;
  2810de:	89 5e 0c             	mov    %ebx,0xc(%esi)
					man->frees--;
  2810e1:	89 10                	mov    %edx,(%eax)
					for(; i<man->frees; i++){
  2810e3:	39 ca                	cmp    %ecx,%edx
  2810e5:	7e 2a                	jle    281111 <memman_free+0x81>
						man->free[i] = man->free[i+1];
  2810e7:	41                   	inc    %ecx
  2810e8:	f3 0f 7e 44 c8 10    	movq   0x10(%eax,%ecx,8),%xmm0
  2810ee:	66 0f d6 44 c8 08    	movq   %xmm0,0x8(%eax,%ecx,8)
  2810f4:	eb ed                	jmp    2810e3 <memman_free+0x53>
				}
			}
		}
		return 0;
	}
	if(i<man->frees){
  2810f6:	85 d2                	test   %edx,%edx
  2810f8:	7e 38                	jle    281132 <memman_free+0xa2>
		if(addr+size == man->free[i].addr){
  2810fa:	8b 7d 10             	mov    0x10(%ebp),%edi
  2810fd:	03 7d 0c             	add    0xc(%ebp),%edi
  281100:	3b 78 10             	cmp    0x10(%eax),%edi
  281103:	75 10                	jne    281115 <memman_free+0x85>
			man->free[i].addr = addr;
  281105:	8b 5d 0c             	mov    0xc(%ebp),%ebx
  281108:	89 58 10             	mov    %ebx,0x10(%eax)
			man->free[i].size += size;
  28110b:	8b 5d 10             	mov    0x10(%ebp),%ebx
  28110e:	01 58 14             	add    %ebx,0x14(%eax)
			return 0;
  281111:	31 c0                	xor    %eax,%eax
  281113:	eb 4b                	jmp    281160 <memman_free+0xd0>
		}
	}
	if(man->frees < MEMMAN_FREES){
  281115:	81 fa f9 0f 00 00    	cmp    $0xff9,%edx
  28111b:	7f 2c                	jg     281149 <memman_free+0xb9>
  28111d:	89 d1                	mov    %edx,%ecx
		for(j=man->frees; j>i; j--){
  28111f:	85 c9                	test   %ecx,%ecx
  281121:	7e 0f                	jle    281132 <memman_free+0xa2>
			man->free[j] = man->free[j-1];
  281123:	49                   	dec    %ecx
  281124:	f3 0f 7e 44 c8 10    	movq   0x10(%eax,%ecx,8),%xmm0
  28112a:	66 0f d6 44 c8 18    	movq   %xmm0,0x18(%eax,%ecx,8)
  281130:	eb ed                	jmp    28111f <memman_free+0x8f>
		}
		man->frees++;
  281132:	42                   	inc    %edx
  281133:	89 10                	mov    %edx,(%eax)
		if(man->maxfrees < man->frees){
  281135:	3b 50 04             	cmp    0x4(%eax),%edx
  281138:	7e 03                	jle    28113d <memman_free+0xad>
			man->maxfrees = man->frees;
  28113a:	89 50 04             	mov    %edx,0x4(%eax)
		}
		man->free[i].addr = addr;
  28113d:	8b 75 0c             	mov    0xc(%ebp),%esi
  281140:	89 70 10             	mov    %esi,0x10(%eax)
		man->free[i].size = size;
  281143:	8b 75 10             	mov    0x10(%ebp),%esi
  281146:	89 70 14             	mov    %esi,0x14(%eax)
	}
	man->losts++;
  281149:	ff 40 0c             	incl   0xc(%eax)
	man->lostsize += size;
  28114c:	8b 5d 10             	mov    0x10(%ebp),%ebx
  28114f:	01 58 08             	add    %ebx,0x8(%eax)
	return -1;
  281152:	83 c8 ff             	or     $0xffffffff,%eax
  281155:	eb 09                	jmp    281160 <memman_free+0xd0>
	if(i>0){
  281157:	85 c9                	test   %ecx,%ecx
  281159:	74 9f                	je     2810fa <memman_free+0x6a>
  28115b:	e9 55 ff ff ff       	jmp    2810b5 <memman_free+0x25>
}
  281160:	5b                   	pop    %ebx
  281161:	5e                   	pop    %esi
  281162:	5f                   	pop    %edi
  281163:	5d                   	pop    %ebp
  281164:	c3                   	ret    

Disassembly of section .text.__x86.get_pc_thunk.bx:

00281165 <__x86.get_pc_thunk.bx>:
  281165:	8b 1c 24             	mov    (%esp),%ebx
  281168:	c3                   	ret    

Disassembly of section .text.__x86.get_pc_thunk.ax:

00281169 <__x86.get_pc_thunk.ax>:
  281169:	8b 04 24             	mov    (%esp),%eax
  28116c:	c3                   	ret    

Disassembly of section .text.__x86.get_pc_thunk.dx:

0028116d <__x86.get_pc_thunk.dx>:
  28116d:	8b 14 24             	mov    (%esp),%edx
  281170:	c3                   	ret    
